
========================================================================

** ELF Header Information

    File Name: .\obj\USBD_HID_Keyboard.axf

    Machine class: ELFCLASS32 (32-bit)
    Data encoding: ELFDATA2LSB (Little endian)
    Header version: EV_CURRENT (Current version)
    Operating System ABI: none
    ABI Version: 0
    File Type: ET_EXEC (Executable) (2)
    Machine: EM_ARM (ARM)

    Image Entry point: 0x000000f1
    Flags: EF_ARM_HASENTRY + EF_ARM_ABI_FLOAT_SOFT (0x05000202)

    ARM ELF revision: 5 (ABI version 2)

    Conforms to Soft float procedure-call standard

    Built with
    Component: ARM Compiler 5.06 update 6 (build 750) Tool: armasm [4d35ec]
    Component: ARM Compiler 5.06 update 6 (build 750) Tool: armlink [4d35ed]

    Header size: 52 bytes (0x34)
    Program header entry size: 32 bytes (0x20)
    Section header entry size: 40 bytes (0x28)

    Program header entries: 1
    Section header entries: 16

    Program header offset: 134540 (0x00020d8c)
    Section header offset: 134572 (0x00020dac)

    Section header string table index: 15

========================================================================

** Program header #0 (PT_LOAD) [PF_X + PF_W + PF_R + PF_ARM_ENTRY]
    Size : 6956 bytes (6444 bytes in file)
    Virtual address: 0x00000000 (Alignment 8)


========================================================================

** Section #1 'ER_RO' (SHT_PROGBITS) [SHF_ALLOC + SHF_EXECINSTR]
    Size   : 6308 bytes (alignment 4)
    Address: 0x00000000

    $d.realdata
    RESET
    __Vectors
        0x00000000:    20000288    ...     DCD    536871560
        0x00000004:    000000f1    ....    DCD    241
        0x00000008:    00000111    ....    DCD    273
        0x0000000c:    000000d5    ....    DCD    213
        0x00000010:    00000000    ....    DCD    0
        0x00000014:    00000000    ....    DCD    0
        0x00000018:    00000000    ....    DCD    0
        0x0000001c:    00000000    ....    DCD    0
        0x00000020:    00000000    ....    DCD    0
        0x00000024:    00000000    ....    DCD    0
        0x00000028:    00000000    ....    DCD    0
        0x0000002c:    00000115    ....    DCD    277
        0x00000030:    00000000    ....    DCD    0
        0x00000034:    00000000    ....    DCD    0
        0x00000038:    00000117    ....    DCD    279
        0x0000003c:    00000119    ....    DCD    281
        0x00000040:    0000011b    ....    DCD    283
        0x00000044:    0000011b    ....    DCD    283
        0x00000048:    0000011b    ....    DCD    283
        0x0000004c:    0000011b    ....    DCD    283
        0x00000050:    0000011b    ....    DCD    283
        0x00000054:    0000011b    ....    DCD    283
        0x00000058:    0000011b    ....    DCD    283
        0x0000005c:    0000011b    ....    DCD    283
        0x00000060:    0000011b    ....    DCD    283
        0x00000064:    0000011b    ....    DCD    283
        0x00000068:    0000011b    ....    DCD    283
        0x0000006c:    0000011b    ....    DCD    283
        0x00000070:    0000011b    ....    DCD    283
        0x00000074:    0000011b    ....    DCD    283
        0x00000078:    0000011b    ....    DCD    283
        0x0000007c:    0000011b    ....    DCD    283
        0x00000080:    0000011b    ....    DCD    283
        0x00000084:    0000011b    ....    DCD    283
        0x00000088:    0000011b    ....    DCD    283
        0x0000008c:    0000011b    ....    DCD    283
        0x00000090:    0000011b    ....    DCD    283
        0x00000094:    0000011b    ....    DCD    283
        0x00000098:    0000011b    ....    DCD    283
        0x0000009c:    00000a55    U...    DCD    2645
        0x000000a0:    0000011b    ....    DCD    283
        0x000000a4:    0000011b    ....    DCD    283
        0x000000a8:    0000011b    ....    DCD    283
        0x000000ac:    0000011b    ....    DCD    283
        0x000000b0:    0000011b    ....    DCD    283
        0x000000b4:    0000011b    ....    DCD    283
        0x000000b8:    0000011b    ....    DCD    283
        0x000000bc:    0000011b    ....    DCD    283
    $t
    .ARM.Collect$$$$00000000
    .ARM.Collect$$$$00000001
    __main
    _main_stk
        0x000000c0:    4803        .H      LDR      r0,__lit__00000000 ; [0xd0] = 0x20000288
        0x000000c2:    4685        .F      MOV      sp,r0
    .ARM.Collect$$$$00000004
    _main_scatterload
        0x000000c4:    f000f880    ....    BL       __scatterload ; 0x1c8
    .ARM.Collect$$$$00000008
    .ARM.Collect$$$$0000000A
    .ARM.Collect$$$$0000000B
    __main_after_scatterload
    _main_clock
    _main_cpp_init
    _main_init
        0x000000c8:    4800        .H      LDR      r0,[pc,#0] ; [0xcc] = 0x1509
        0x000000ca:    4700        .G      BX       r0
    $d
        0x000000cc:    00001509    ....    DCD    5385
    .ARM.Collect$$$$00002712
    __lit__00000000
    .ARM.Collect$$$$0000000D
    .ARM.Collect$$$$0000000F
    __rt_final_cpp
    __rt_final_exit
        0x000000d0:    20000288    ...     DCD    536871560
    $t
    .emb_text
    HardFault_Handler
        0x000000d4:    2004        .       MOVS     r0,#4
        0x000000d6:    4671        qF      MOV      r1,lr
        0x000000d8:    4208        .B      TST      r0,r1
        0x000000da:    d002        ..      BEQ      0xe2 ; HardFault_Handler + 14
        0x000000dc:    f3ef8009    ....    MRS      r0,PSP
        0x000000e0:    e001        ..      B        0xe6 ; HardFault_Handler + 18
        0x000000e2:    f3ef8008    ....    MRS      r0,MSP
        0x000000e6:    4671        qF      MOV      r1,lr
        0x000000e8:    4a00        .J      LDR      r2,[pc,#0] ; [0xec] = 0x56d
        0x000000ea:    4710        .G      BX       r2
    $d
        0x000000ec:    0000056d    m...    DCD    1389
    $t
    .text
    Reset_Handler
        0x000000f0:    480a        .H      LDR      r0,[pc,#40] ; [0x11c] = 0x50000100
        0x000000f2:    490b        .I      LDR      r1,[pc,#44] ; [0x120] = 0x59
        0x000000f4:    6001        .`      STR      r1,[r0,#0]
        0x000000f6:    490b        .I      LDR      r1,[pc,#44] ; [0x124] = 0x16
        0x000000f8:    6001        .`      STR      r1,[r0,#0]
        0x000000fa:    490b        .I      LDR      r1,[pc,#44] ; [0x128] = 0x88
        0x000000fc:    6001        .`      STR      r1,[r0,#0]
        0x000000fe:    4a0b        .J      LDR      r2,[pc,#44] ; [0x12c] = 0x50000024
        0x00000100:    490b        .I      LDR      r1,[pc,#44] ; [0x130] = 0x5aa5
        0x00000102:    6011        .`      STR      r1,[r2,#0]
        0x00000104:    2100        .!      MOVS     r1,#0
        0x00000106:    6001        .`      STR      r1,[r0,#0]
        0x00000108:    480a        .H      LDR      r0,[pc,#40] ; [0x134] = 0x6ad
        0x0000010a:    4780        .G      BLX      r0
        0x0000010c:    480a        .H      LDR      r0,[pc,#40] ; [0x138] = 0xc1
        0x0000010e:    4700        .G      BX       r0
    NMI_Handler
        0x00000110:    e7fe        ..      B        NMI_Handler ; 0x110
        0x00000112:    e7fe        ..      B        0x112 ; NMI_Handler + 2
    SVC_Handler
        0x00000114:    e7fe        ..      B        SVC_Handler ; 0x114
    PendSV_Handler
        0x00000116:    e7fe        ..      B        PendSV_Handler ; 0x116
    SysTick_Handler
        0x00000118:    e7fe        ..      B        SysTick_Handler ; 0x118
    Default_Handler
    ADC_IRQHandler
    BOD_IRQHandler
    BPWM0_IRQHandler
    BPWM1_IRQHandler
    CLKDIRC_IRQHandler
    EINT024_IRQHandler
    EINT135_IRQHandler
    GPAB_IRQHandler
    GPCDEF_IRQHandler
    I2C0_IRQHandler
    I2C1_IRQHandler
    PDMA_IRQHandler
    PWM0_IRQHandler
    PWM1_IRQHandler
    PWM_BRAKE_IRQHandler
    PWRWU_IRQHandler
    SPI0_IRQHandler
    TMR0_IRQHandler
    TMR1_IRQHandler
    TMR2_IRQHandler
    TMR3_IRQHandler
    UART0_IRQHandler
    USCI_IRQHandler
    WDT_IRQHandler
        0x0000011a:    e7fe        ..      B        Default_Handler ; 0x11a
    $d
        0x0000011c:    50000100    ...P    DCD    1342177536
        0x00000120:    00000059    Y...    DCD    89
        0x00000124:    00000016    ....    DCD    22
        0x00000128:    00000088    ....    DCD    136
        0x0000012c:    50000024    $..P    DCD    1342177316
        0x00000130:    00005aa5    .Z..    DCD    23205
        0x00000134:    000006ad    ....    DCD    1709
        0x00000138:    000000c1    ....    DCD    193
    $t
    .text
    __aeabi_uidiv
    __aeabi_uidivmod
        0x0000013c:    b530        0.      PUSH     {r4,r5,lr}
        0x0000013e:    460b        .F      MOV      r3,r1
        0x00000140:    4601        .F      MOV      r1,r0
        0x00000142:    2000        .       MOVS     r0,#0
        0x00000144:    2220         "      MOVS     r2,#0x20
        0x00000146:    2401        .$      MOVS     r4,#1
        0x00000148:    e009        ..      B        0x15e ; __aeabi_uidiv + 34
        0x0000014a:    460d        .F      MOV      r5,r1
        0x0000014c:    40d5        .@      LSRS     r5,r5,r2
        0x0000014e:    429d        .B      CMP      r5,r3
        0x00000150:    d305        ..      BCC      0x15e ; __aeabi_uidiv + 34
        0x00000152:    461d        .F      MOV      r5,r3
        0x00000154:    4095        .@      LSLS     r5,r5,r2
        0x00000156:    1b49        I.      SUBS     r1,r1,r5
        0x00000158:    4625        %F      MOV      r5,r4
        0x0000015a:    4095        .@      LSLS     r5,r5,r2
        0x0000015c:    1940        @.      ADDS     r0,r0,r5
        0x0000015e:    4615        .F      MOV      r5,r2
        0x00000160:    1e52        R.      SUBS     r2,r2,#1
        0x00000162:    2d00        .-      CMP      r5,#0
        0x00000164:    dcf1        ..      BGT      0x14a ; __aeabi_uidiv + 14
        0x00000166:    bd30        0.      POP      {r4,r5,pc}
    .text
    __aeabi_uldivmod
        0x00000168:    b5f0        ..      PUSH     {r4-r7,lr}
        0x0000016a:    b41f        ..      PUSH     {r0-r4}
        0x0000016c:    4606        .F      MOV      r6,r0
        0x0000016e:    2000        .       MOVS     r0,#0
        0x00000170:    b082        ..      SUB      sp,sp,#8
        0x00000172:    4605        .F      MOV      r5,r0
        0x00000174:    2440        @$      MOVS     r4,#0x40
        0x00000176:    9101        ..      STR      r1,[sp,#4]
        0x00000178:    9000        ..      STR      r0,[sp,#0]
        0x0000017a:    e01b        ..      B        0x1b4 ; __aeabi_uldivmod + 76
        0x0000017c:    9901        ..      LDR      r1,[sp,#4]
        0x0000017e:    4622        "F      MOV      r2,r4
        0x00000180:    460f        .F      MOV      r7,r1
        0x00000182:    4630        0F      MOV      r0,r6
        0x00000184:    f000f842    ..B.    BL       __aeabi_llsr ; 0x20c
        0x00000188:    9a04        ..      LDR      r2,[sp,#0x10]
        0x0000018a:    9b05        ..      LDR      r3,[sp,#0x14]
        0x0000018c:    1a80        ..      SUBS     r0,r0,r2
        0x0000018e:    4199        .A      SBCS     r1,r1,r3
        0x00000190:    d310        ..      BCC      0x1b4 ; __aeabi_uldivmod + 76
        0x00000192:    4610        .F      MOV      r0,r2
        0x00000194:    4619        .F      MOV      r1,r3
        0x00000196:    4622        "F      MOV      r2,r4
        0x00000198:    f000f828    ..(.    BL       __aeabi_llsl ; 0x1ec
        0x0000019c:    1a36        6.      SUBS     r6,r6,r0
        0x0000019e:    418f        .A      SBCS     r7,r7,r1
        0x000001a0:    9701        ..      STR      r7,[sp,#4]
        0x000001a2:    4622        "F      MOV      r2,r4
        0x000001a4:    2001        .       MOVS     r0,#1
        0x000001a6:    2100        .!      MOVS     r1,#0
        0x000001a8:    9f00        ..      LDR      r7,[sp,#0]
        0x000001aa:    f000f81f    ....    BL       __aeabi_llsl ; 0x1ec
        0x000001ae:    1838        8.      ADDS     r0,r7,r0
        0x000001b0:    414d        MA      ADCS     r5,r5,r1
        0x000001b2:    9000        ..      STR      r0,[sp,#0]
        0x000001b4:    4620         F      MOV      r0,r4
        0x000001b6:    1e64        d.      SUBS     r4,r4,#1
        0x000001b8:    2800        .(      CMP      r0,#0
        0x000001ba:    dcdf        ..      BGT      0x17c ; __aeabi_uldivmod + 20
        0x000001bc:    9b01        ..      LDR      r3,[sp,#4]
        0x000001be:    9800        ..      LDR      r0,[sp,#0]
        0x000001c0:    4629        )F      MOV      r1,r5
        0x000001c2:    4632        2F      MOV      r2,r6
        0x000001c4:    b007        ..      ADD      sp,sp,#0x1c
        0x000001c6:    bdf0        ..      POP      {r4-r7,pc}
    .text
    __scatterload
    __scatterload_rt2
        0x000001c8:    4c06        .L      LDR      r4,[pc,#24] ; [0x1e4] = 0x1884
        0x000001ca:    2501        .%      MOVS     r5,#1
        0x000001cc:    4e06        .N      LDR      r6,[pc,#24] ; [0x1e8] = 0x18a4
        0x000001ce:    e005        ..      B        0x1dc ; __scatterload + 20
        0x000001d0:    68e3        .h      LDR      r3,[r4,#0xc]
        0x000001d2:    cc07        ..      LDM      r4!,{r0-r2}
        0x000001d4:    432b        +C      ORRS     r3,r3,r5
        0x000001d6:    3c0c        .<      SUBS     r4,r4,#0xc
        0x000001d8:    4798        .G      BLX      r3
        0x000001da:    3410        .4      ADDS     r4,r4,#0x10
        0x000001dc:    42b4        .B      CMP      r4,r6
        0x000001de:    d3f7        ..      BCC      0x1d0 ; __scatterload + 8
        0x000001e0:    f7ffff72    ..r.    BL       __main_after_scatterload ; 0xc8
    $d
        0x000001e4:    00001884    ....    DCD    6276
        0x000001e8:    000018a4    ....    DCD    6308
    $t
    .text
    __aeabi_llsl
    _ll_shift_l
        0x000001ec:    b510        ..      PUSH     {r4,lr}
        0x000001ee:    2a20         *      CMP      r2,#0x20
        0x000001f0:    db04        ..      BLT      0x1fc ; __aeabi_llsl + 16
        0x000001f2:    4601        .F      MOV      r1,r0
        0x000001f4:    3a20         :      SUBS     r2,r2,#0x20
        0x000001f6:    4091        .@      LSLS     r1,r1,r2
        0x000001f8:    2000        .       MOVS     r0,#0
        0x000001fa:    bd10        ..      POP      {r4,pc}
        0x000001fc:    4091        .@      LSLS     r1,r1,r2
        0x000001fe:    2320         #      MOVS     r3,#0x20
        0x00000200:    1a9c        ..      SUBS     r4,r3,r2
        0x00000202:    4603        .F      MOV      r3,r0
        0x00000204:    40e3        .@      LSRS     r3,r3,r4
        0x00000206:    4319        .C      ORRS     r1,r1,r3
        0x00000208:    4090        .@      LSLS     r0,r0,r2
        0x0000020a:    bd10        ..      POP      {r4,pc}
    .text
    __aeabi_llsr
    _ll_ushift_r
        0x0000020c:    b510        ..      PUSH     {r4,lr}
        0x0000020e:    2a20         *      CMP      r2,#0x20
        0x00000210:    db04        ..      BLT      0x21c ; __aeabi_llsr + 16
        0x00000212:    4608        .F      MOV      r0,r1
        0x00000214:    3a20         :      SUBS     r2,r2,#0x20
        0x00000216:    40d0        .@      LSRS     r0,r0,r2
        0x00000218:    2100        .!      MOVS     r1,#0
        0x0000021a:    bd10        ..      POP      {r4,pc}
        0x0000021c:    460b        .F      MOV      r3,r1
        0x0000021e:    40d3        .@      LSRS     r3,r3,r2
        0x00000220:    40d0        .@      LSRS     r0,r0,r2
        0x00000222:    2420         $      MOVS     r4,#0x20
        0x00000224:    1aa2        ..      SUBS     r2,r4,r2
        0x00000226:    4091        .@      LSLS     r1,r1,r2
        0x00000228:    4308        .C      ORRS     r0,r0,r1
        0x0000022a:    4619        .F      MOV      r1,r3
        0x0000022c:    bd10        ..      POP      {r4,pc}
        0x0000022e:    0000        ..      MOVS     r0,r0
    i.CLK_EnableModuleClock
    CLK_EnableModuleClock
        0x00000230:    b50e        ..      PUSH     {r1-r3,lr}
        0x00000232:    4b0d        .K      LDR      r3,[pc,#52] ; [0x268] = 0x186c
        0x00000234:    681a        .h      LDR      r2,[r3,#0]
        0x00000236:    6859        Yh      LDR      r1,[r3,#4]
        0x00000238:    689b        .h      LDR      r3,[r3,#8]
        0x0000023a:    9302        ..      STR      r3,[sp,#8]
        0x0000023c:    9200        ..      STR      r2,[sp,#0]
        0x0000023e:    9101        ..      STR      r1,[sp,#4]
        0x00000240:    0f81        ..      LSRS     r1,r0,#30
        0x00000242:    0089        ..      LSLS     r1,r1,#2
        0x00000244:    466a        jF      MOV      r2,sp
        0x00000246:    5851        QX      LDR      r1,[r2,r1]
        0x00000248:    4a08        .J      LDR      r2,[pc,#32] ; [0x26c] = 0x50000200
        0x0000024a:    1889        ..      ADDS     r1,r1,r2
        0x0000024c:    6849        Ih      LDR      r1,[r1,#4]
        0x0000024e:    06c3        ..      LSLS     r3,r0,#27
        0x00000250:    0edb        ..      LSRS     r3,r3,#27
        0x00000252:    2201        ."      MOVS     r2,#1
        0x00000254:    409a        .@      LSLS     r2,r2,r3
        0x00000256:    4311        .C      ORRS     r1,r1,r2
        0x00000258:    0f82        ..      LSRS     r2,r0,#30
        0x0000025a:    0092        ..      LSLS     r2,r2,#2
        0x0000025c:    466b        kF      MOV      r3,sp
        0x0000025e:    589a        .X      LDR      r2,[r3,r2]
        0x00000260:    4b02        .K      LDR      r3,[pc,#8] ; [0x26c] = 0x50000200
        0x00000262:    18d2        ..      ADDS     r2,r2,r3
        0x00000264:    6051        Q`      STR      r1,[r2,#4]
        0x00000266:    bd0e        ..      POP      {r1-r3,pc}
    $d
        0x00000268:    0000186c    l...    DCD    6252
        0x0000026c:    50000200    ...P    DCD    1342177792
    $t
    i.CLK_EnableXtalRC
    CLK_EnableXtalRC
        0x00000270:    4907        .I      LDR      r1,[pc,#28] ; [0x290] = 0x50000200
        0x00000272:    6809        .h      LDR      r1,[r1,#0]
        0x00000274:    4301        .C      ORRS     r1,r1,r0
        0x00000276:    0789        ..      LSLS     r1,r1,#30
        0x00000278:    0f89        ..      LSRS     r1,r1,#30
        0x0000027a:    2903        .)      CMP      r1,#3
        0x0000027c:    d100        ..      BNE      0x280 ; CLK_EnableXtalRC + 16
        0x0000027e:    4770        pG      BX       lr
        0x00000280:    4903        .I      LDR      r1,[pc,#12] ; [0x290] = 0x50000200
        0x00000282:    6809        .h      LDR      r1,[r1,#0]
        0x00000284:    4301        .C      ORRS     r1,r1,r0
        0x00000286:    4a02        .J      LDR      r2,[pc,#8] ; [0x290] = 0x50000200
        0x00000288:    6011        .`      STR      r1,[r2,#0]
        0x0000028a:    bf00        ..      NOP      
        0x0000028c:    e7f7        ..      B        0x27e ; CLK_EnableXtalRC + 14
    $d
        0x0000028e:    0000        ..      DCW    0
        0x00000290:    50000200    ...P    DCD    1342177792
    $t
    i.CLK_GetPLLClockFreq
    CLK_GetPLLClockFreq
        0x00000294:    b5fe        ..      PUSH     {r1-r7,lr}
        0x00000296:    2000        .       MOVS     r0,#0
        0x00000298:    9002        ..      STR      r0,[sp,#8]
        0x0000029a:    a01a        ..      ADR      r0,{pc}+0x6a ; 0x304
        0x0000029c:    6800        .h      LDR      r0,[r0,#0]
        0x0000029e:    9000        ..      STR      r0,[sp,#0]
        0x000002a0:    4819        .H      LDR      r0,[pc,#100] ; [0x308] = 0x50000200
        0x000002a2:    6a04        .j      LDR      r4,[r0,#0x20]
        0x000002a4:    1300        ..      ASRS     r0,r0,#12
        0x000002a6:    4020         @      ANDS     r0,r0,r4
        0x000002a8:    2800        .(      CMP      r0,#0
        0x000002aa:    d001        ..      BEQ      0x2b0 ; CLK_GetPLLClockFreq + 28
        0x000002ac:    2000        .       MOVS     r0,#0
        0x000002ae:    bdfe        ..      POP      {r1-r7,pc}
        0x000002b0:    2011        .       MOVS     r0,#0x11
        0x000002b2:    04c0        ..      LSLS     r0,r0,#19
        0x000002b4:    4020         @      ANDS     r0,r0,r4
        0x000002b6:    2800        .(      CMP      r0,#0
        0x000002b8:    d001        ..      BEQ      0x2be ; CLK_GetPLLClockFreq + 42
        0x000002ba:    4d14        .M      LDR      r5,[pc,#80] ; [0x30c] = 0x16e3600
        0x000002bc:    e000        ..      B        0x2c0 ; CLK_GetPLLClockFreq + 44
        0x000002be:    4d14        .M      LDR      r5,[pc,#80] ; [0x310] = 0xb71b00
        0x000002c0:    2001        .       MOVS     r0,#1
        0x000002c2:    0440        @.      LSLS     r0,r0,#17
        0x000002c4:    4020         @      ANDS     r0,r0,r4
        0x000002c6:    2800        .(      CMP      r0,#0
        0x000002c8:    d001        ..      BEQ      0x2ce ; CLK_GetPLLClockFreq + 58
        0x000002ca:    4628        (F      MOV      r0,r5
        0x000002cc:    e7ef        ..      B        0x2ae ; CLK_GetPLLClockFreq + 26
        0x000002ce:    2003        .       MOVS     r0,#3
        0x000002d0:    0380        ..      LSLS     r0,r0,#14
        0x000002d2:    4020         @      ANDS     r0,r0,r4
        0x000002d4:    0b80        ..      LSRS     r0,r0,#14
        0x000002d6:    4669        iF      MOV      r1,sp
        0x000002d8:    5c0a        .\      LDRB     r2,[r1,r0]
        0x000002da:    9201        ..      STR      r2,[sp,#4]
        0x000002dc:    05e0        ..      LSLS     r0,r4,#23
        0x000002de:    0dc0        ..      LSRS     r0,r0,#23
        0x000002e0:    1c86        ..      ADDS     r6,r0,#2
        0x000002e2:    201f        .       MOVS     r0,#0x1f
        0x000002e4:    0240        @.      LSLS     r0,r0,#9
        0x000002e6:    4020         @      ANDS     r0,r0,r4
        0x000002e8:    0a40        @.      LSRS     r0,r0,#9
        0x000002ea:    1c87        ..      ADDS     r7,r0,#2
        0x000002ec:    9a01        ..      LDR      r2,[sp,#4]
        0x000002ee:    437a        zC      MULS     r2,r7,r2
        0x000002f0:    4611        .F      MOV      r1,r2
        0x000002f2:    08aa        ..      LSRS     r2,r5,#2
        0x000002f4:    4372        rC      MULS     r2,r6,r2
        0x000002f6:    4610        .F      MOV      r0,r2
        0x000002f8:    f7ffff20    .. .    BL       __aeabi_uidiv ; 0x13c
        0x000002fc:    0080        ..      LSLS     r0,r0,#2
        0x000002fe:    9002        ..      STR      r0,[sp,#8]
        0x00000300:    9802        ..      LDR      r0,[sp,#8]
        0x00000302:    e7d4        ..      B        0x2ae ; CLK_GetPLLClockFreq + 26
    $d
        0x00000304:    04020201    ....    DCD    67240449
        0x00000308:    50000200    ...P    DCD    1342177792
        0x0000030c:    016e3600    .6n.    DCD    24000000
        0x00000310:    00b71b00    ....    DCD    12000000
    $t
    i.CLK_SetHCLK
    CLK_SetHCLK
        0x00000314:    b570        p.      PUSH     {r4-r6,lr}
        0x00000316:    4604        .F      MOV      r4,r0
        0x00000318:    460d        .F      MOV      r5,r1
        0x0000031a:    4816        .H      LDR      r0,[pc,#88] ; [0x374] = 0x50000200
        0x0000031c:    68c0        .h      LDR      r0,[r0,#0xc]
        0x0000031e:    2110        .!      MOVS     r1,#0x10
        0x00000320:    4008        .@      ANDS     r0,r0,r1
        0x00000322:    4606        .F      MOV      r6,r0
        0x00000324:    4813        .H      LDR      r0,[pc,#76] ; [0x374] = 0x50000200
        0x00000326:    6800        .h      LDR      r0,[r0,#0]
        0x00000328:    2104        .!      MOVS     r1,#4
        0x0000032a:    4308        .C      ORRS     r0,r0,r1
        0x0000032c:    4911        .I      LDR      r1,[pc,#68] ; [0x374] = 0x50000200
        0x0000032e:    6008        .`      STR      r0,[r1,#0]
        0x00000330:    2010        .       MOVS     r0,#0x10
        0x00000332:    f000f85f    .._.    BL       CLK_WaitClockReady ; 0x3f4
        0x00000336:    480f        .H      LDR      r0,[pc,#60] ; [0x374] = 0x50000200
        0x00000338:    6900        .i      LDR      r0,[r0,#0x10]
        0x0000033a:    08c0        ..      LSRS     r0,r0,#3
        0x0000033c:    00c0        ..      LSLS     r0,r0,#3
        0x0000033e:    1d00        ..      ADDS     r0,r0,#4
        0x00000340:    490c        .I      LDR      r1,[pc,#48] ; [0x374] = 0x50000200
        0x00000342:    6108        .a      STR      r0,[r1,#0x10]
        0x00000344:    4608        .F      MOV      r0,r1
        0x00000346:    6980        .i      LDR      r0,[r0,#0x18]
        0x00000348:    0900        ..      LSRS     r0,r0,#4
        0x0000034a:    0100        ..      LSLS     r0,r0,#4
        0x0000034c:    4328        (C      ORRS     r0,r0,r5
        0x0000034e:    6188        .a      STR      r0,[r1,#0x18]
        0x00000350:    4608        .F      MOV      r0,r1
        0x00000352:    6900        .i      LDR      r0,[r0,#0x10]
        0x00000354:    08c0        ..      LSRS     r0,r0,#3
        0x00000356:    00c0        ..      LSLS     r0,r0,#3
        0x00000358:    4320         C      ORRS     r0,r0,r4
        0x0000035a:    6108        .a      STR      r0,[r1,#0x10]
        0x0000035c:    f000f96a    ..j.    BL       SystemCoreClockUpdate ; 0x634
        0x00000360:    2e00        ..      CMP      r6,#0
        0x00000362:    d105        ..      BNE      0x370 ; CLK_SetHCLK + 92
        0x00000364:    4803        .H      LDR      r0,[pc,#12] ; [0x374] = 0x50000200
        0x00000366:    6800        .h      LDR      r0,[r0,#0]
        0x00000368:    2104        .!      MOVS     r1,#4
        0x0000036a:    4388        .C      BICS     r0,r0,r1
        0x0000036c:    4901        .I      LDR      r1,[pc,#4] ; [0x374] = 0x50000200
        0x0000036e:    6008        .`      STR      r0,[r1,#0]
        0x00000370:    bd70        p.      POP      {r4-r6,pc}
    $d
        0x00000372:    0000        ..      DCW    0
        0x00000374:    50000200    ...P    DCD    1342177792
    $t
    i.CLK_SetModuleClock
    CLK_SetModuleClock
        0x00000378:    b5f7        ..      PUSH     {r0-r2,r4-r7,lr}
        0x0000037a:    b085        ..      SUB      sp,sp,#0x14
        0x0000037c:    2200        ."      MOVS     r2,#0
        0x0000037e:    2300        .#      MOVS     r3,#0
        0x00000380:    4c1a        .L      LDR      r4,[pc,#104] ; [0x3ec] = 0x185c
        0x00000382:    4625        %F      MOV      r5,r4
        0x00000384:    cde0        ..      LDM      r5,{r5-r7}
        0x00000386:    68e4        .h      LDR      r4,[r4,#0xc]
        0x00000388:    9703        ..      STR      r7,[sp,#0xc]
        0x0000038a:    9602        ..      STR      r6,[sp,#8]
        0x0000038c:    9501        ..      STR      r5,[sp,#4]
        0x0000038e:    9404        ..      STR      r4,[sp,#0x10]
        0x00000390:    2400        .$      MOVS     r4,#0
        0x00000392:    9400        ..      STR      r4,[sp,#0]
        0x00000394:    0384        ..      LSLS     r4,r0,#14
        0x00000396:    0e24        $.      LSRS     r4,r4,#24
        0x00000398:    2c00        .,      CMP      r4,#0
        0x0000039a:    d010        ..      BEQ      0x3be ; CLK_SetModuleClock + 70
        0x0000039c:    0304        ..      LSLS     r4,r0,#12
        0x0000039e:    0fa4        ..      LSRS     r4,r4,#30
        0x000003a0:    00a4        ..      LSLS     r4,r4,#2
        0x000003a2:    466d        mF      MOV      r5,sp
        0x000003a4:    592c        ,Y      LDR      r4,[r5,r4]
        0x000003a6:    4d12        .M      LDR      r5,[pc,#72] ; [0x3f0] = 0x50000218
        0x000003a8:    1963        c.      ADDS     r3,r4,r5
        0x000003aa:    0384        ..      LSLS     r4,r0,#14
        0x000003ac:    0e25        %.      LSRS     r5,r4,#24
        0x000003ae:    0584        ..      LSLS     r4,r0,#22
        0x000003b0:    0ee4        ..      LSRS     r4,r4,#27
        0x000003b2:    40a5        .@      LSLS     r5,r5,r4
        0x000003b4:    681c        .h      LDR      r4,[r3,#0]
        0x000003b6:    43ac        .C      BICS     r4,r4,r5
        0x000003b8:    9d07        ..      LDR      r5,[sp,#0x1c]
        0x000003ba:    432c        ,C      ORRS     r4,r4,r5
        0x000003bc:    601c        .`      STR      r4,[r3,#0]
        0x000003be:    0104        ..      LSLS     r4,r0,#4
        0x000003c0:    0f64        d.      LSRS     r4,r4,#29
        0x000003c2:    2c00        .,      CMP      r4,#0
        0x000003c4:    d010        ..      BEQ      0x3e8 ; CLK_SetModuleClock + 112
        0x000003c6:    0084        ..      LSLS     r4,r0,#2
        0x000003c8:    0fa4        ..      LSRS     r4,r4,#30
        0x000003ca:    00a4        ..      LSLS     r4,r4,#2
        0x000003cc:    ad01        ..      ADD      r5,sp,#4
        0x000003ce:    592c        ,Y      LDR      r4,[r5,r4]
        0x000003d0:    4d07        .M      LDR      r5,[pc,#28] ; [0x3f0] = 0x50000218
        0x000003d2:    3d08        .=      SUBS     r5,r5,#8
        0x000003d4:    1962        b.      ADDS     r2,r4,r5
        0x000003d6:    0104        ..      LSLS     r4,r0,#4
        0x000003d8:    0f65        e.      LSRS     r5,r4,#29
        0x000003da:    01c4        ..      LSLS     r4,r0,#7
        0x000003dc:    0ee4        ..      LSRS     r4,r4,#27
        0x000003de:    40a5        .@      LSLS     r5,r5,r4
        0x000003e0:    6814        .h      LDR      r4,[r2,#0]
        0x000003e2:    43ac        .C      BICS     r4,r4,r5
        0x000003e4:    430c        .C      ORRS     r4,r4,r1
        0x000003e6:    6014        .`      STR      r4,[r2,#0]
        0x000003e8:    b008        ..      ADD      sp,sp,#0x20
        0x000003ea:    bdf0        ..      POP      {r4-r7,pc}
    $d
        0x000003ec:    0000185c    \...    DCD    6236
        0x000003f0:    50000218    ...P    DCD    1342177816
    $t
    i.CLK_WaitClockReady
    CLK_WaitClockReady
        0x000003f4:    4601        .F      MOV      r1,r0
        0x000003f6:    4a07        .J      LDR      r2,[pc,#28] ; [0x414] = 0x20f580
        0x000003f8:    e005        ..      B        0x406 ; CLK_WaitClockReady + 18
        0x000003fa:    4610        .F      MOV      r0,r2
        0x000003fc:    1e52        R.      SUBS     r2,r2,#1
        0x000003fe:    2800        .(      CMP      r0,#0
        0x00000400:    dc01        ..      BGT      0x406 ; CLK_WaitClockReady + 18
        0x00000402:    2000        .       MOVS     r0,#0
        0x00000404:    4770        pG      BX       lr
        0x00000406:    4804        .H      LDR      r0,[pc,#16] ; [0x418] = 0x50000200
        0x00000408:    68c0        .h      LDR      r0,[r0,#0xc]
        0x0000040a:    4008        .@      ANDS     r0,r0,r1
        0x0000040c:    4288        .B      CMP      r0,r1
        0x0000040e:    d1f4        ..      BNE      0x3fa ; CLK_WaitClockReady + 6
        0x00000410:    2001        .       MOVS     r0,#1
        0x00000412:    e7f7        ..      B        0x404 ; CLK_WaitClockReady + 16
    $d
        0x00000414:    0020f580    .. .    DCD    2160000
        0x00000418:    50000200    ...P    DCD    1342177792
    $t
    i.EP2_Handler
    EP2_Handler
        0x0000041c:    2001        .       MOVS     r0,#1
        0x0000041e:    4901        .I      LDR      r1,[pc,#4] ; [0x424] = 0x20000028
        0x00000420:    7008        .p      STRB     r0,[r1,#0]
        0x00000422:    4770        pG      BX       lr
    $d
        0x00000424:    20000028    (..     DCD    536870952
    $t
    i.HID_ClassRequest
    HID_ClassRequest
        0x00000428:    b51c        ..      PUSH     {r2-r4,lr}
        0x0000042a:    4668        hF      MOV      r0,sp
        0x0000042c:    f000fb08    ....    BL       USBD_GetSetupPacket ; 0xa40
        0x00000430:    4668        hF      MOV      r0,sp
        0x00000432:    7800        .x      LDRB     r0,[r0,#0]
        0x00000434:    2180        .!      MOVS     r1,#0x80
        0x00000436:    4008        .@      ANDS     r0,r0,r1
        0x00000438:    2800        .(      CMP      r0,#0
        0x0000043a:    d012        ..      BEQ      0x462 ; HID_ClassRequest + 58
        0x0000043c:    4668        hF      MOV      r0,sp
        0x0000043e:    7840        @x      LDRB     r0,[r0,#1]
        0x00000440:    2801        .(      CMP      r0,#1
        0x00000442:    d004        ..      BEQ      0x44e ; HID_ClassRequest + 38
        0x00000444:    2802        .(      CMP      r0,#2
        0x00000446:    d003        ..      BEQ      0x450 ; HID_ClassRequest + 40
        0x00000448:    2803        .(      CMP      r0,#3
        0x0000044a:    d002        ..      BEQ      0x452 ; HID_ClassRequest + 42
        0x0000044c:    bf00        ..      NOP      
        0x0000044e:    bf00        ..      NOP      
        0x00000450:    bf00        ..      NOP      
        0x00000452:    2000        .       MOVS     r0,#0
        0x00000454:    f000fc8a    ....    BL       USBD_SetStall ; 0xd6c
        0x00000458:    2001        .       MOVS     r0,#1
        0x0000045a:    f000fc87    ....    BL       USBD_SetStall ; 0xd6c
        0x0000045e:    bf00        ..      NOP      
        0x00000460:    e034        4.      B        0x4cc ; HID_ClassRequest + 164
        0x00000462:    4668        hF      MOV      r0,sp
        0x00000464:    7840        @x      LDRB     r0,[r0,#1]
        0x00000466:    2809        .(      CMP      r0,#9
        0x00000468:    d004        ..      BEQ      0x474 ; HID_ClassRequest + 76
        0x0000046a:    280a        .(      CMP      r0,#0xa
        0x0000046c:    d014        ..      BEQ      0x498 ; HID_ClassRequest + 112
        0x0000046e:    280b        .(      CMP      r0,#0xb
        0x00000470:    d124        $.      BNE      0x4bc ; HID_ClassRequest + 148
        0x00000472:    e01a        ..      B        0x4aa ; HID_ClassRequest + 130
        0x00000474:    4668        hF      MOV      r0,sp
        0x00000476:    78c0        .x      LDRB     r0,[r0,#3]
        0x00000478:    2802        .(      CMP      r0,#2
        0x0000047a:    d10c        ..      BNE      0x496 ; HID_ClassRequest + 110
        0x0000047c:    4814        .H      LDR      r0,[pc,#80] ; [0x4d0] = 0x40060500
        0x0000047e:    6980        .i      LDR      r0,[r0,#0x18]
        0x00000480:    2180        .!      MOVS     r1,#0x80
        0x00000482:    4308        .C      ORRS     r0,r0,r1
        0x00000484:    4912        .I      LDR      r1,[pc,#72] ; [0x4d0] = 0x40060500
        0x00000486:    6188        .a      STR      r0,[r1,#0x18]
        0x00000488:    4668        hF      MOV      r0,sp
        0x0000048a:    7980        .y      LDRB     r0,[r0,#6]
        0x0000048c:    6148        Ha      STR      r0,[r1,#0x14]
        0x0000048e:    2100        .!      MOVS     r1,#0
        0x00000490:    4608        .F      MOV      r0,r1
        0x00000492:    f000fbc9    ....    BL       USBD_PrepareCtrlIn ; 0xc28
        0x00000496:    e018        ..      B        0x4ca ; HID_ClassRequest + 162
        0x00000498:    480d        .H      LDR      r0,[pc,#52] ; [0x4d0] = 0x40060500
        0x0000049a:    6880        .h      LDR      r0,[r0,#8]
        0x0000049c:    2180        .!      MOVS     r1,#0x80
        0x0000049e:    4308        .C      ORRS     r0,r0,r1
        0x000004a0:    490b        .I      LDR      r1,[pc,#44] ; [0x4d0] = 0x40060500
        0x000004a2:    6088        .`      STR      r0,[r1,#8]
        0x000004a4:    2000        .       MOVS     r0,#0
        0x000004a6:    6048        H`      STR      r0,[r1,#4]
        0x000004a8:    e00f        ..      B        0x4ca ; HID_ClassRequest + 162
        0x000004aa:    4809        .H      LDR      r0,[pc,#36] ; [0x4d0] = 0x40060500
        0x000004ac:    6880        .h      LDR      r0,[r0,#8]
        0x000004ae:    2180        .!      MOVS     r1,#0x80
        0x000004b0:    4308        .C      ORRS     r0,r0,r1
        0x000004b2:    4907        .I      LDR      r1,[pc,#28] ; [0x4d0] = 0x40060500
        0x000004b4:    6088        .`      STR      r0,[r1,#8]
        0x000004b6:    2000        .       MOVS     r0,#0
        0x000004b8:    6048        H`      STR      r0,[r1,#4]
        0x000004ba:    e006        ..      B        0x4ca ; HID_ClassRequest + 162
        0x000004bc:    2000        .       MOVS     r0,#0
        0x000004be:    f000fc55    ..U.    BL       USBD_SetStall ; 0xd6c
        0x000004c2:    2001        .       MOVS     r0,#1
        0x000004c4:    f000fc52    ..R.    BL       USBD_SetStall ; 0xd6c
        0x000004c8:    bf00        ..      NOP      
        0x000004ca:    bf00        ..      NOP      
        0x000004cc:    bd1c        ..      POP      {r2-r4,pc}
    $d
        0x000004ce:    0000        ..      DCW    0
        0x000004d0:    40060500    ...@    DCD    1074136320
    $t
    i.HID_Init
    HID_Init
        0x000004d4:    2000        .       MOVS     r0,#0
        0x000004d6:    4909        .I      LDR      r1,[pc,#36] ; [0x4fc] = 0x40060000
        0x000004d8:    6188        .a      STR      r0,[r1,#0x18]
        0x000004da:    2009        .       MOVS     r0,#9
        0x000004dc:    0180        ..      LSLS     r0,r0,#6
        0x000004de:    4908        .I      LDR      r1,[pc,#32] ; [0x500] = 0x40060500
        0x000004e0:    6088        .`      STR      r0,[r1,#8]
        0x000004e2:    2008        .       MOVS     r0,#8
        0x000004e4:    6008        .`      STR      r0,[r1,#0]
        0x000004e6:    2011        .       MOVS     r0,#0x11
        0x000004e8:    0140        @.      LSLS     r0,r0,#5
        0x000004ea:    6188        .a      STR      r0,[r1,#0x18]
        0x000004ec:    2008        .       MOVS     r0,#8
        0x000004ee:    6108        .a      STR      r0,[r1,#0x10]
        0x000004f0:    2041        A       MOVS     r0,#0x41
        0x000004f2:    6288        .b      STR      r0,[r1,#0x28]
        0x000004f4:    2010        .       MOVS     r0,#0x10
        0x000004f6:    6208        .b      STR      r0,[r1,#0x20]
        0x000004f8:    4770        pG      BX       lr
    $d
        0x000004fa:    0000        ..      DCW    0
        0x000004fc:    40060000    ...@    DCD    1074135040
        0x00000500:    40060500    ...@    DCD    1074136320
    $t
    i.HID_UpdateKbData
    HID_UpdateKbData
        0x00000504:    b510        ..      PUSH     {r4,lr}
        0x00000506:    220f        ."      MOVS     r2,#0xf
        0x00000508:    4b13        .K      LDR      r3,[pc,#76] ; [0x558] = 0x20000028
        0x0000050a:    781b        .x      LDRB     r3,[r3,#0]
        0x0000050c:    2b00        .+      CMP      r3,#0
        0x0000050e:    d021        !.      BEQ      0x554 ; HID_UpdateKbData + 80
        0x00000510:    4b12        .K      LDR      r3,[pc,#72] ; [0x55c] = 0x40060500
        0x00000512:    6a1b        .j      LDR      r3,[r3,#0x20]
        0x00000514:    4c12        .L      LDR      r4,[pc,#72] ; [0x560] = 0x40060100
        0x00000516:    1919        ..      ADDS     r1,r3,r4
        0x00000518:    4b12        .K      LDR      r3,[pc,#72] ; [0x564] = 0x50004040
        0x0000051a:    691b        .i      LDR      r3,[r3,#0x10]
        0x0000051c:    0bdc        ..      LSRS     r4,r3,#15
        0x0000051e:    2301        .#      MOVS     r3,#1
        0x00000520:    43a3        .C      BICS     r3,r3,r4
        0x00000522:    461a        .F      MOV      r2,r3
        0x00000524:    2a00        .*      CMP      r2,#0
        0x00000526:    d10e        ..      BNE      0x546 ; HID_UpdateKbData + 66
        0x00000528:    2000        .       MOVS     r0,#0
        0x0000052a:    e002        ..      B        0x532 ; HID_UpdateKbData + 46
        0x0000052c:    2300        .#      MOVS     r3,#0
        0x0000052e:    540b        .T      STRB     r3,[r1,r0]
        0x00000530:    1c40        @.      ADDS     r0,r0,#1
        0x00000532:    2808        .(      CMP      r0,#8
        0x00000534:    dbfa        ..      BLT      0x52c ; HID_UpdateKbData + 40
        0x00000536:    4b0c        .K      LDR      r3,[pc,#48] ; [0x568] = 0x2000002c
        0x00000538:    681b        .h      LDR      r3,[r3,#0]
        0x0000053a:    429a        .B      CMP      r2,r3
        0x0000053c:    d00a        ..      BEQ      0x554 ; HID_UpdateKbData + 80
        0x0000053e:    2308        .#      MOVS     r3,#8
        0x00000540:    4c06        .L      LDR      r4,[pc,#24] ; [0x55c] = 0x40060500
        0x00000542:    6263        cb      STR      r3,[r4,#0x24]
        0x00000544:    e006        ..      B        0x554 ; HID_UpdateKbData + 80
        0x00000546:    4b08        .K      LDR      r3,[pc,#32] ; [0x568] = 0x2000002c
        0x00000548:    601a        .`      STR      r2,[r3,#0]
        0x0000054a:    2304        .#      MOVS     r3,#4
        0x0000054c:    708b        .p      STRB     r3,[r1,#2]
        0x0000054e:    2308        .#      MOVS     r3,#8
        0x00000550:    4c02        .L      LDR      r4,[pc,#8] ; [0x55c] = 0x40060500
        0x00000552:    6263        cb      STR      r3,[r4,#0x24]
        0x00000554:    bd10        ..      POP      {r4,pc}
    $d
        0x00000556:    0000        ..      DCW    0
        0x00000558:    20000028    (..     DCD    536870952
        0x0000055c:    40060500    ...@    DCD    1074136320
        0x00000560:    40060100    ...@    DCD    1074135296
        0x00000564:    50004040    @@.P    DCD    1342193728
        0x00000568:    2000002c    ,..     DCD    536870956
    $t
    i.Hard_Fault_Handler
    Hard_Fault_Handler
    __tagsym$$used
        0x0000056c:    4604        .F      MOV      r4,r0
        0x0000056e:    a004        ..      ADR      r0,{pc}+0x12 ; 0x580
        0x00000570:    f000fe34    ..4.    BL       __0printf$5 ; 0x11dc
        0x00000574:    4620         F      MOV      r0,r4
        0x00000576:    f001f895    ....    BL       stackDump ; 0x16a4
        0x0000057a:    bf00        ..      NOP      
        0x0000057c:    e7fe        ..      B        0x57c ; Hard_Fault_Handler + 16
    $d
        0x0000057e:    0000        ..      DCW    0
        0x00000580:    48206e49    In H    DCD    1210084937
        0x00000584:    20647261    ard     DCD    543453793
        0x00000588:    6c756146    Faul    DCD    1819631942
        0x0000058c:    61482074    t Ha    DCD    1632116852
        0x00000590:    656c646e    ndle    DCD    1701602414
        0x00000594:    00000a72    r...    DCD    2674
    $t
    i.SYS_Init
    SYS_Init
        0x00000598:    b510        ..      PUSH     {r4,lr}
        0x0000059a:    2004        .       MOVS     r0,#4
        0x0000059c:    f7fffe68    ..h.    BL       CLK_EnableXtalRC ; 0x270
        0x000005a0:    2010        .       MOVS     r0,#0x10
        0x000005a2:    f7ffff27    ..'.    BL       CLK_WaitClockReady ; 0x3f4
        0x000005a6:    2100        .!      MOVS     r1,#0
        0x000005a8:    2004        .       MOVS     r0,#4
        0x000005aa:    f7fffeb3    ....    BL       CLK_SetHCLK ; 0x314
        0x000005ae:    2200        ."      MOVS     r2,#0
        0x000005b0:    4611        .F      MOV      r1,r2
        0x000005b2:    480e        .H      LDR      r0,[pc,#56] ; [0x5ec] = 0x72803c9b
        0x000005b4:    f7fffee0    ....    BL       CLK_SetModuleClock ; 0x378
        0x000005b8:    f000f83c    ..<.    BL       SystemCoreClockUpdate ; 0x634
        0x000005bc:    480c        .H      LDR      r0,[pc,#48] ; [0x5f0] = 0x57803d10
        0x000005be:    f7fffe37    ..7.    BL       CLK_EnableModuleClock ; 0x230
        0x000005c2:    480a        .H      LDR      r0,[pc,#40] ; [0x5ec] = 0x72803c9b
        0x000005c4:    f7fffe34    ..4.    BL       CLK_EnableModuleClock ; 0x230
        0x000005c8:    2200        ."      MOVS     r2,#0
        0x000005ca:    2103        .!      MOVS     r1,#3
        0x000005cc:    0609        ..      LSLS     r1,r1,#24
        0x000005ce:    4808        .H      LDR      r0,[pc,#32] ; [0x5f0] = 0x57803d10
        0x000005d0:    f7fffed2    ....    BL       CLK_SetModuleClock ; 0x378
        0x000005d4:    2005        .       MOVS     r0,#5
        0x000005d6:    0700        ..      LSLS     r0,r0,#28
        0x000005d8:    6b80        .k      LDR      r0,[r0,#0x38]
        0x000005da:    0a00        ..      LSRS     r0,r0,#8
        0x000005dc:    0200        ..      LSLS     r0,r0,#8
        0x000005de:    2105        .!      MOVS     r1,#5
        0x000005e0:    0709        ..      LSLS     r1,r1,#28
        0x000005e2:    6388        .c      STR      r0,[r1,#0x38]
        0x000005e4:    2011        .       MOVS     r0,#0x11
        0x000005e6:    6388        .c      STR      r0,[r1,#0x38]
        0x000005e8:    bd10        ..      POP      {r4,pc}
    $d
        0x000005ea:    0000        ..      DCW    0
        0x000005ec:    72803c9b    .<.r    DCD    1921006747
        0x000005f0:    57803d10    .=.W    DCD    1468022032
    $t
    i.SendChar
    SendChar
        0x000005f4:    b500        ..      PUSH     {lr}
        0x000005f6:    4603        .F      MOV      r3,r0
        0x000005f8:    4618        .F      MOV      r0,r3
        0x000005fa:    f000f801    ....    BL       SendChar_ToUART ; 0x600
        0x000005fe:    bd00        ..      POP      {pc}
    i.SendChar_ToUART
    SendChar_ToUART
        0x00000600:    bf00        ..      NOP      
        0x00000602:    490b        .I      LDR      r1,[pc,#44] ; [0x630] = 0x40050000
        0x00000604:    6989        .i      LDR      r1,[r1,#0x18]
        0x00000606:    2201        ."      MOVS     r2,#1
        0x00000608:    05d2        ..      LSLS     r2,r2,#23
        0x0000060a:    4011        .@      ANDS     r1,r1,r2
        0x0000060c:    2900        .)      CMP      r1,#0
        0x0000060e:    d1f8        ..      BNE      0x602 ; SendChar_ToUART + 2
        0x00000610:    4907        .I      LDR      r1,[pc,#28] ; [0x630] = 0x40050000
        0x00000612:    6008        .`      STR      r0,[r1,#0]
        0x00000614:    280a        .(      CMP      r0,#0xa
        0x00000616:    d10a        ..      BNE      0x62e ; SendChar_ToUART + 46
        0x00000618:    bf00        ..      NOP      
        0x0000061a:    4905        .I      LDR      r1,[pc,#20] ; [0x630] = 0x40050000
        0x0000061c:    6989        .i      LDR      r1,[r1,#0x18]
        0x0000061e:    2201        ."      MOVS     r2,#1
        0x00000620:    05d2        ..      LSLS     r2,r2,#23
        0x00000622:    4011        .@      ANDS     r1,r1,r2
        0x00000624:    2900        .)      CMP      r1,#0
        0x00000626:    d1f8        ..      BNE      0x61a ; SendChar_ToUART + 26
        0x00000628:    210d        .!      MOVS     r1,#0xd
        0x0000062a:    4a01        .J      LDR      r2,[pc,#4] ; [0x630] = 0x40050000
        0x0000062c:    6011        .`      STR      r1,[r2,#0]
        0x0000062e:    4770        pG      BX       lr
    $d
        0x00000630:    40050000    ...@    DCD    1074069504
    $t
    i.SystemCoreClockUpdate
    SystemCoreClockUpdate
        0x00000634:    b570        p.      PUSH     {r4-r6,lr}
        0x00000636:    4817        .H      LDR      r0,[pc,#92] ; [0x694] = 0x50000200
        0x00000638:    6900        .i      LDR      r0,[r0,#0x10]
        0x0000063a:    0745        E.      LSLS     r5,r0,#29
        0x0000063c:    0f6d        m.      LSRS     r5,r5,#29
        0x0000063e:    f7fffe29    ..).    BL       CLK_GetPLLClockFreq ; 0x294
        0x00000642:    4915        .I      LDR      r1,[pc,#84] ; [0x698] = 0x20000008
        0x00000644:    6008        .`      STR      r0,[r1,#0]
        0x00000646:    2d02        .-      CMP      r5,#2
        0x00000648:    d002        ..      BEQ      0x650 ; SystemCoreClockUpdate + 28
        0x0000064a:    2d05        .-      CMP      r5,#5
        0x0000064c:    d107        ..      BNE      0x65e ; SystemCoreClockUpdate + 42
        0x0000064e:    e002        ..      B        0x656 ; SystemCoreClockUpdate + 34
        0x00000650:    4811        .H      LDR      r0,[pc,#68] ; [0x698] = 0x20000008
        0x00000652:    6804        .h      LDR      r4,[r0,#0]
        0x00000654:    e007        ..      B        0x666 ; SystemCoreClockUpdate + 50
        0x00000656:    4810        .H      LDR      r0,[pc,#64] ; [0x698] = 0x20000008
        0x00000658:    6800        .h      LDR      r0,[r0,#0]
        0x0000065a:    0844        D.      LSRS     r4,r0,#1
        0x0000065c:    e003        ..      B        0x666 ; SystemCoreClockUpdate + 50
        0x0000065e:    00a8        ..      LSLS     r0,r5,#2
        0x00000660:    490e        .I      LDR      r1,[pc,#56] ; [0x69c] = 0x174c
        0x00000662:    580c        .X      LDR      r4,[r1,r0]
        0x00000664:    bf00        ..      NOP      
        0x00000666:    bf00        ..      NOP      
        0x00000668:    480a        .H      LDR      r0,[pc,#40] ; [0x694] = 0x50000200
        0x0000066a:    6980        .i      LDR      r0,[r0,#0x18]
        0x0000066c:    0700        ..      LSLS     r0,r0,#28
        0x0000066e:    0f00        ..      LSRS     r0,r0,#28
        0x00000670:    1c46        F.      ADDS     r6,r0,#1
        0x00000672:    4631        1F      MOV      r1,r6
        0x00000674:    4620         F      MOV      r0,r4
        0x00000676:    f7fffd61    ..a.    BL       __aeabi_uidiv ; 0x13c
        0x0000067a:    4909        .I      LDR      r1,[pc,#36] ; [0x6a0] = 0x20000000
        0x0000067c:    6008        .`      STR      r0,[r1,#0]
        0x0000067e:    4909        .I      LDR      r1,[pc,#36] ; [0x6a4] = 0xf4240
        0x00000680:    4807        .H      LDR      r0,[pc,#28] ; [0x6a0] = 0x20000000
        0x00000682:    6800        .h      LDR      r0,[r0,#0]
        0x00000684:    104a        J.      ASRS     r2,r1,#1
        0x00000686:    1880        ..      ADDS     r0,r0,r2
        0x00000688:    f7fffd58    ..X.    BL       __aeabi_uidiv ; 0x13c
        0x0000068c:    4906        .I      LDR      r1,[pc,#24] ; [0x6a8] = 0x20000004
        0x0000068e:    6008        .`      STR      r0,[r1,#0]
        0x00000690:    bd70        p.      POP      {r4-r6,pc}
    $d
        0x00000692:    0000        ..      DCW    0
        0x00000694:    50000200    ...P    DCD    1342177792
        0x00000698:    20000008    ...     DCD    536870920
        0x0000069c:    0000174c    L...    DCD    5964
        0x000006a0:    20000000    ...     DCD    536870912
        0x000006a4:    000f4240    @B..    DCD    1000000
        0x000006a8:    20000004    ...     DCD    536870916
    $t
    i.SystemInit
    SystemInit
        0x000006ac:    4770        pG      BX       lr
        0x000006ae:    0000        ..      MOVS     r0,r0
    i.UART0_Init
    UART0_Init
        0x000006b0:    2005        .       MOVS     r0,#5
        0x000006b2:    0700        ..      LSLS     r0,r0,#28
        0x000006b4:    68c0        .h      LDR      r0,[r0,#0xc]
        0x000006b6:    2101        .!      MOVS     r1,#1
        0x000006b8:    0409        ..      LSLS     r1,r1,#16
        0x000006ba:    4308        .C      ORRS     r0,r0,r1
        0x000006bc:    2105        .!      MOVS     r1,#5
        0x000006be:    0709        ..      LSLS     r1,r1,#28
        0x000006c0:    60c8        .`      STR      r0,[r1,#0xc]
        0x000006c2:    4608        .F      MOV      r0,r1
        0x000006c4:    68c0        .h      LDR      r0,[r0,#0xc]
        0x000006c6:    2101        .!      MOVS     r1,#1
        0x000006c8:    0409        ..      LSLS     r1,r1,#16
        0x000006ca:    4388        .C      BICS     r0,r0,r1
        0x000006cc:    2105        .!      MOVS     r1,#5
        0x000006ce:    0709        ..      LSLS     r1,r1,#28
        0x000006d0:    60c8        .`      STR      r0,[r1,#0xc]
        0x000006d2:    4803        .H      LDR      r0,[pc,#12] ; [0x6e0] = 0x300000ce
        0x000006d4:    4903        .I      LDR      r1,[pc,#12] ; [0x6e4] = 0x40050000
        0x000006d6:    6248        Hb      STR      r0,[r1,#0x24]
        0x000006d8:    2003        .       MOVS     r0,#3
        0x000006da:    60c8        .`      STR      r0,[r1,#0xc]
        0x000006dc:    4770        pG      BX       lr
    $d
        0x000006de:    0000        ..      DCW    0
        0x000006e0:    300000ce    ...0    DCD    805306574
        0x000006e4:    40050000    ...@    DCD    1074069504
    $t
    i.USBD_CtrlIn
    USBD_CtrlIn
        0x000006e8:    b510        ..      PUSH     {r4,lr}
        0x000006ea:    482d        -H      LDR      r0,[pc,#180] ; [0x7a0] = 0x20000048
        0x000006ec:    6800        .h      LDR      r0,[r0,#0]
        0x000006ee:    2800        .(      CMP      r0,#0
        0x000006f0:    d036        6.      BEQ      0x760 ; USBD_CtrlIn + 120
        0x000006f2:    482b        +H      LDR      r0,[pc,#172] ; [0x7a0] = 0x20000048
        0x000006f4:    6800        .h      LDR      r0,[r0,#0]
        0x000006f6:    492b        +I      LDR      r1,[pc,#172] ; [0x7a4] = 0x20000060
        0x000006f8:    6809        .h      LDR      r1,[r1,#0]
        0x000006fa:    4288        .B      CMP      r0,r1
        0x000006fc:    d91c        ..      BLS      0x738 ; USBD_CtrlIn + 80
        0x000006fe:    492a        *I      LDR      r1,[pc,#168] ; [0x7a8] = 0x40060500
        0x00000700:    6809        .h      LDR      r1,[r1,#0]
        0x00000702:    4a2a        *J      LDR      r2,[pc,#168] ; [0x7ac] = 0x40060100
        0x00000704:    1888        ..      ADDS     r0,r1,r2
        0x00000706:    4927        'I      LDR      r1,[pc,#156] ; [0x7a4] = 0x20000060
        0x00000708:    680a        .h      LDR      r2,[r1,#0]
        0x0000070a:    4929        )I      LDR      r1,[pc,#164] ; [0x7b0] = 0x20000044
        0x0000070c:    6809        .h      LDR      r1,[r1,#0]
        0x0000070e:    f000fa5b    ..[.    BL       USBD_MemCopy ; 0xbc8
        0x00000712:    4824        $H      LDR      r0,[pc,#144] ; [0x7a4] = 0x20000060
        0x00000714:    6800        .h      LDR      r0,[r0,#0]
        0x00000716:    4924        $I      LDR      r1,[pc,#144] ; [0x7a8] = 0x40060500
        0x00000718:    6048        H`      STR      r0,[r1,#4]
        0x0000071a:    4825        %H      LDR      r0,[pc,#148] ; [0x7b0] = 0x20000044
        0x0000071c:    6800        .h      LDR      r0,[r0,#0]
        0x0000071e:    4921        !I      LDR      r1,[pc,#132] ; [0x7a4] = 0x20000060
        0x00000720:    6809        .h      LDR      r1,[r1,#0]
        0x00000722:    1840        @.      ADDS     r0,r0,r1
        0x00000724:    4922        "I      LDR      r1,[pc,#136] ; [0x7b0] = 0x20000044
        0x00000726:    6008        .`      STR      r0,[r1,#0]
        0x00000728:    481d        .H      LDR      r0,[pc,#116] ; [0x7a0] = 0x20000048
        0x0000072a:    6800        .h      LDR      r0,[r0,#0]
        0x0000072c:    491d        .I      LDR      r1,[pc,#116] ; [0x7a4] = 0x20000060
        0x0000072e:    6809        .h      LDR      r1,[r1,#0]
        0x00000730:    1a40        @.      SUBS     r0,r0,r1
        0x00000732:    491b        .I      LDR      r1,[pc,#108] ; [0x7a0] = 0x20000048
        0x00000734:    6008        .`      STR      r0,[r1,#0]
        0x00000736:    e032        2.      B        0x79e ; USBD_CtrlIn + 182
        0x00000738:    491b        .I      LDR      r1,[pc,#108] ; [0x7a8] = 0x40060500
        0x0000073a:    6809        .h      LDR      r1,[r1,#0]
        0x0000073c:    4a1b        .J      LDR      r2,[pc,#108] ; [0x7ac] = 0x40060100
        0x0000073e:    1888        ..      ADDS     r0,r1,r2
        0x00000740:    4917        .I      LDR      r1,[pc,#92] ; [0x7a0] = 0x20000048
        0x00000742:    680a        .h      LDR      r2,[r1,#0]
        0x00000744:    491a        .I      LDR      r1,[pc,#104] ; [0x7b0] = 0x20000044
        0x00000746:    6809        .h      LDR      r1,[r1,#0]
        0x00000748:    f000fa3e    ..>.    BL       USBD_MemCopy ; 0xbc8
        0x0000074c:    4814        .H      LDR      r0,[pc,#80] ; [0x7a0] = 0x20000048
        0x0000074e:    6800        .h      LDR      r0,[r0,#0]
        0x00000750:    4915        .I      LDR      r1,[pc,#84] ; [0x7a8] = 0x40060500
        0x00000752:    6048        H`      STR      r0,[r1,#4]
        0x00000754:    2000        .       MOVS     r0,#0
        0x00000756:    4916        .I      LDR      r1,[pc,#88] ; [0x7b0] = 0x20000044
        0x00000758:    6008        .`      STR      r0,[r1,#0]
        0x0000075a:    4911        .I      LDR      r1,[pc,#68] ; [0x7a0] = 0x20000048
        0x0000075c:    6008        .`      STR      r0,[r1,#0]
        0x0000075e:    e01e        ..      B        0x79e ; USBD_CtrlIn + 182
        0x00000760:    4814        .H      LDR      r0,[pc,#80] ; [0x7b4] = 0x20000038
        0x00000762:    7800        .x      LDRB     r0,[r0,#0]
        0x00000764:    2800        .(      CMP      r0,#0
        0x00000766:    d111        ..      BNE      0x78c ; USBD_CtrlIn + 164
        0x00000768:    4812        .H      LDR      r0,[pc,#72] ; [0x7b4] = 0x20000038
        0x0000076a:    7840        @x      LDRB     r0,[r0,#1]
        0x0000076c:    2805        .(      CMP      r0,#5
        0x0000076e:    d10d        ..      BNE      0x78c ; USBD_CtrlIn + 164
        0x00000770:    4811        .H      LDR      r0,[pc,#68] ; [0x7b8] = 0x40060000
        0x00000772:    6880        .h      LDR      r0,[r0,#8]
        0x00000774:    4911        .I      LDR      r1,[pc,#68] ; [0x7bc] = 0x20000058
        0x00000776:    6809        .h      LDR      r1,[r1,#0]
        0x00000778:    4288        .B      CMP      r0,r1
        0x0000077a:    d007        ..      BEQ      0x78c ; USBD_CtrlIn + 164
        0x0000077c:    480e        .H      LDR      r0,[pc,#56] ; [0x7b8] = 0x40060000
        0x0000077e:    6880        .h      LDR      r0,[r0,#8]
        0x00000780:    2800        .(      CMP      r0,#0
        0x00000782:    d103        ..      BNE      0x78c ; USBD_CtrlIn + 164
        0x00000784:    480d        .H      LDR      r0,[pc,#52] ; [0x7bc] = 0x20000058
        0x00000786:    6800        .h      LDR      r0,[r0,#0]
        0x00000788:    490b        .I      LDR      r1,[pc,#44] ; [0x7b8] = 0x40060000
        0x0000078a:    6088        .`      STR      r0,[r1,#8]
        0x0000078c:    480c        .H      LDR      r0,[pc,#48] ; [0x7c0] = 0x20000068
        0x0000078e:    7800        .x      LDRB     r0,[r0,#0]
        0x00000790:    2800        .(      CMP      r0,#0
        0x00000792:    d004        ..      BEQ      0x79e ; USBD_CtrlIn + 182
        0x00000794:    2000        .       MOVS     r0,#0
        0x00000796:    4904        .I      LDR      r1,[pc,#16] ; [0x7a8] = 0x40060500
        0x00000798:    6048        H`      STR      r0,[r1,#4]
        0x0000079a:    4909        .I      LDR      r1,[pc,#36] ; [0x7c0] = 0x20000068
        0x0000079c:    7008        .p      STRB     r0,[r1,#0]
        0x0000079e:    bd10        ..      POP      {r4,pc}
    $d
        0x000007a0:    20000048    H..     DCD    536870984
        0x000007a4:    20000060    `..     DCD    536871008
        0x000007a8:    40060500    ...@    DCD    1074136320
        0x000007ac:    40060100    ...@    DCD    1074135296
        0x000007b0:    20000044    D..     DCD    536870980
        0x000007b4:    20000038    8..     DCD    536870968
        0x000007b8:    40060000    ...@    DCD    1074135040
        0x000007bc:    20000058    X..     DCD    536871000
        0x000007c0:    20000068    h..     DCD    536871016
    $t
    i.USBD_CtrlOut
    USBD_CtrlOut
        0x000007c4:    b570        p.      PUSH     {r4-r6,lr}
        0x000007c6:    481d        .H      LDR      r0,[pc,#116] ; [0x83c] = 0x40060000
        0x000007c8:    68c0        .h      LDR      r0,[r0,#0xc]
        0x000007ca:    2107        .!      MOVS     r1,#7
        0x000007cc:    02c9        ..      LSLS     r1,r1,#11
        0x000007ce:    4008        .@      ANDS     r0,r0,r1
        0x000007d0:    491b        .I      LDR      r1,[pc,#108] ; [0x840] = 0x2000006c
        0x000007d2:    6809        .h      LDR      r1,[r1,#0]
        0x000007d4:    4288        .B      CMP      r0,r1
        0x000007d6:    d02c        ,.      BEQ      0x832 ; USBD_CtrlOut + 110
        0x000007d8:    4818        .H      LDR      r0,[pc,#96] ; [0x83c] = 0x40060000
        0x000007da:    68c0        .h      LDR      r0,[r0,#0xc]
        0x000007dc:    2107        .!      MOVS     r1,#7
        0x000007de:    02c9        ..      LSLS     r1,r1,#11
        0x000007e0:    4008        .@      ANDS     r0,r0,r1
        0x000007e2:    4917        .I      LDR      r1,[pc,#92] ; [0x840] = 0x2000006c
        0x000007e4:    6008        .`      STR      r0,[r1,#0]
        0x000007e6:    4817        .H      LDR      r0,[pc,#92] ; [0x844] = 0x20000050
        0x000007e8:    6800        .h      LDR      r0,[r0,#0]
        0x000007ea:    4917        .I      LDR      r1,[pc,#92] ; [0x848] = 0x20000054
        0x000007ec:    6809        .h      LDR      r1,[r1,#0]
        0x000007ee:    4288        .B      CMP      r0,r1
        0x000007f0:    d223        #.      BCS      0x83a ; USBD_CtrlOut + 118
        0x000007f2:    4816        .H      LDR      r0,[pc,#88] ; [0x84c] = 0x40060500
        0x000007f4:    6944        Di      LDR      r4,[r0,#0x14]
        0x000007f6:    6900        .i      LDR      r0,[r0,#0x10]
        0x000007f8:    4915        .I      LDR      r1,[pc,#84] ; [0x850] = 0x40060100
        0x000007fa:    1845        E.      ADDS     r5,r0,r1
        0x000007fc:    4622        "F      MOV      r2,r4
        0x000007fe:    4629        )F      MOV      r1,r5
        0x00000800:    4814        .H      LDR      r0,[pc,#80] ; [0x854] = 0x2000004c
        0x00000802:    6800        .h      LDR      r0,[r0,#0]
        0x00000804:    f000f9e0    ....    BL       USBD_MemCopy ; 0xbc8
        0x00000808:    4812        .H      LDR      r0,[pc,#72] ; [0x854] = 0x2000004c
        0x0000080a:    6800        .h      LDR      r0,[r0,#0]
        0x0000080c:    1900        ..      ADDS     r0,r0,r4
        0x0000080e:    4911        .I      LDR      r1,[pc,#68] ; [0x854] = 0x2000004c
        0x00000810:    6008        .`      STR      r0,[r1,#0]
        0x00000812:    480c        .H      LDR      r0,[pc,#48] ; [0x844] = 0x20000050
        0x00000814:    6800        .h      LDR      r0,[r0,#0]
        0x00000816:    1900        ..      ADDS     r0,r0,r4
        0x00000818:    490a        .I      LDR      r1,[pc,#40] ; [0x844] = 0x20000050
        0x0000081a:    6008        .`      STR      r0,[r1,#0]
        0x0000081c:    4608        .F      MOV      r0,r1
        0x0000081e:    6800        .h      LDR      r0,[r0,#0]
        0x00000820:    4909        .I      LDR      r1,[pc,#36] ; [0x848] = 0x20000054
        0x00000822:    6809        .h      LDR      r1,[r1,#0]
        0x00000824:    4288        .B      CMP      r0,r1
        0x00000826:    d208        ..      BCS      0x83a ; USBD_CtrlOut + 118
        0x00000828:    480b        .H      LDR      r0,[pc,#44] ; [0x858] = 0x20000060
        0x0000082a:    6800        .h      LDR      r0,[r0,#0]
        0x0000082c:    4907        .I      LDR      r1,[pc,#28] ; [0x84c] = 0x40060500
        0x0000082e:    6148        Ha      STR      r0,[r1,#0x14]
        0x00000830:    e003        ..      B        0x83a ; USBD_CtrlOut + 118
        0x00000832:    4809        .H      LDR      r0,[pc,#36] ; [0x858] = 0x20000060
        0x00000834:    6800        .h      LDR      r0,[r0,#0]
        0x00000836:    4905        .I      LDR      r1,[pc,#20] ; [0x84c] = 0x40060500
        0x00000838:    6148        Ha      STR      r0,[r1,#0x14]
        0x0000083a:    bd70        p.      POP      {r4-r6,pc}
    $d
        0x0000083c:    40060000    ...@    DCD    1074135040
        0x00000840:    2000006c    l..     DCD    536871020
        0x00000844:    20000050    P..     DCD    536870992
        0x00000848:    20000054    T..     DCD    536870996
        0x0000084c:    40060500    ...@    DCD    1074136320
        0x00000850:    40060100    ...@    DCD    1074135296
        0x00000854:    2000004c    L..     DCD    536870988
        0x00000858:    20000060    `..     DCD    536871008
    $t
    i.USBD_GetDescriptor
    USBD_GetDescriptor
        0x0000085c:    b570        p.      PUSH     {r4-r6,lr}
        0x0000085e:    2000        .       MOVS     r0,#0
        0x00000860:    4972        rI      LDR      r1,[pc,#456] ; [0xa2c] = 0x20000068
        0x00000862:    7008        .p      STRB     r0,[r1,#0]
        0x00000864:    2400        .$      MOVS     r4,#0
        0x00000866:    4872        rH      LDR      r0,[pc,#456] ; [0xa30] = 0x20000038
        0x00000868:    79c4        .y      LDRB     r4,[r0,#7]
        0x0000086a:    0224        $.      LSLS     r4,r4,#8
        0x0000086c:    7980        .y      LDRB     r0,[r0,#6]
        0x0000086e:    1904        ..      ADDS     r4,r0,r4
        0x00000870:    486f        oH      LDR      r0,[pc,#444] ; [0xa30] = 0x20000038
        0x00000872:    78c0        .x      LDRB     r0,[r0,#3]
        0x00000874:    280f        .(      CMP      r0,#0xf
        0x00000876:    d071        q.      BEQ      0x95c ; USBD_GetDescriptor + 256
        0x00000878:    dc06        ..      BGT      0x888 ; USBD_GetDescriptor + 44
        0x0000087a:    2801        .(      CMP      r0,#1
        0x0000087c:    d009        ..      BEQ      0x892 ; USBD_GetDescriptor + 54
        0x0000087e:    2802        .(      CMP      r0,#2
        0x00000880:    d014        ..      BEQ      0x8ac ; USBD_GetDescriptor + 80
        0x00000882:    2803        .(      CMP      r0,#3
        0x00000884:    d16b        k.      BNE      0x95e ; USBD_GetDescriptor + 258
        0x00000886:    e06b        k.      B        0x960 ; USBD_GetDescriptor + 260
        0x00000888:    2821        !(      CMP      r0,#0x21
        0x0000088a:    d02d        -.      BEQ      0x8e8 ; USBD_GetDescriptor + 140
        0x0000088c:    2822        "(      CMP      r0,#0x22
        0x0000088e:    d1f9        ..      BNE      0x884 ; USBD_GetDescriptor + 40
        0x00000890:    e03f        ?.      B        0x912 ; USBD_GetDescriptor + 182
        0x00000892:    2c12        .,      CMP      r4,#0x12
        0x00000894:    d201        ..      BCS      0x89a ; USBD_GetDescriptor + 62
        0x00000896:    4620         F      MOV      r0,r4
        0x00000898:    e000        ..      B        0x89c ; USBD_GetDescriptor + 64
        0x0000089a:    2012        .       MOVS     r0,#0x12
        0x0000089c:    4604        .F      MOV      r4,r0
        0x0000089e:    4965        eI      LDR      r1,[pc,#404] ; [0xa34] = 0x20000070
        0x000008a0:    6809        .h      LDR      r1,[r1,#0]
        0x000008a2:    6808        .h      LDR      r0,[r1,#0]
        0x000008a4:    4621        !F      MOV      r1,r4
        0x000008a6:    f000f9bf    ....    BL       USBD_PrepareCtrlIn ; 0xc28
        0x000008aa:    e0bd        ..      B        0xa28 ; USBD_GetDescriptor + 460
        0x000008ac:    4861        aH      LDR      r0,[pc,#388] ; [0xa34] = 0x20000070
        0x000008ae:    6800        .h      LDR      r0,[r0,#0]
        0x000008b0:    6840        @h      LDR      r0,[r0,#4]
        0x000008b2:    78c5        .x      LDRB     r5,[r0,#3]
        0x000008b4:    485f        _H      LDR      r0,[pc,#380] ; [0xa34] = 0x20000070
        0x000008b6:    6800        .h      LDR      r0,[r0,#0]
        0x000008b8:    6840        @h      LDR      r0,[r0,#4]
        0x000008ba:    7880        .x      LDRB     r0,[r0,#2]
        0x000008bc:    0229        ).      LSLS     r1,r5,#8
        0x000008be:    1845        E.      ADDS     r5,r0,r1
        0x000008c0:    42ac        .B      CMP      r4,r5
        0x000008c2:    d90a        ..      BLS      0x8da ; USBD_GetDescriptor + 126
        0x000008c4:    462c        ,F      MOV      r4,r5
        0x000008c6:    485c        \H      LDR      r0,[pc,#368] ; [0xa38] = 0x20000060
        0x000008c8:    6801        .h      LDR      r1,[r0,#0]
        0x000008ca:    4620         F      MOV      r0,r4
        0x000008cc:    f7fffc36    ..6.    BL       __aeabi_uidiv ; 0x13c
        0x000008d0:    2900        .)      CMP      r1,#0
        0x000008d2:    d102        ..      BNE      0x8da ; USBD_GetDescriptor + 126
        0x000008d4:    2001        .       MOVS     r0,#1
        0x000008d6:    4955        UI      LDR      r1,[pc,#340] ; [0xa2c] = 0x20000068
        0x000008d8:    7008        .p      STRB     r0,[r1,#0]
        0x000008da:    4956        VI      LDR      r1,[pc,#344] ; [0xa34] = 0x20000070
        0x000008dc:    6809        .h      LDR      r1,[r1,#0]
        0x000008de:    6848        Hh      LDR      r0,[r1,#4]
        0x000008e0:    4621        !F      MOV      r1,r4
        0x000008e2:    f000f9a1    ....    BL       USBD_PrepareCtrlIn ; 0xc28
        0x000008e6:    e09f        ..      B        0xa28 ; USBD_GetDescriptor + 460
        0x000008e8:    2c09        .,      CMP      r4,#9
        0x000008ea:    d201        ..      BCS      0x8f0 ; USBD_GetDescriptor + 148
        0x000008ec:    4620         F      MOV      r0,r4
        0x000008ee:    e000        ..      B        0x8f2 ; USBD_GetDescriptor + 150
        0x000008f0:    2009        .       MOVS     r0,#9
        0x000008f2:    4604        .F      MOV      r4,r0
        0x000008f4:    484f        OH      LDR      r0,[pc,#316] ; [0xa34] = 0x20000070
        0x000008f6:    6800        .h      LDR      r0,[r0,#0]
        0x000008f8:    6940        @i      LDR      r0,[r0,#0x14]
        0x000008fa:    494d        MI      LDR      r1,[pc,#308] ; [0xa30] = 0x20000038
        0x000008fc:    7909        .y      LDRB     r1,[r1,#4]
        0x000008fe:    0089        ..      LSLS     r1,r1,#2
        0x00000900:    5845        EX      LDR      r5,[r0,r1]
        0x00000902:    494c        LI      LDR      r1,[pc,#304] ; [0xa34] = 0x20000070
        0x00000904:    6809        .h      LDR      r1,[r1,#0]
        0x00000906:    6849        Ih      LDR      r1,[r1,#4]
        0x00000908:    1948        H.      ADDS     r0,r1,r5
        0x0000090a:    4621        !F      MOV      r1,r4
        0x0000090c:    f000f98c    ....    BL       USBD_PrepareCtrlIn ; 0xc28
        0x00000910:    e08a        ..      B        0xa28 ; USBD_GetDescriptor + 460
        0x00000912:    4848        HH      LDR      r0,[pc,#288] ; [0xa34] = 0x20000070
        0x00000914:    6800        .h      LDR      r0,[r0,#0]
        0x00000916:    6900        .i      LDR      r0,[r0,#0x10]
        0x00000918:    4945        EI      LDR      r1,[pc,#276] ; [0xa30] = 0x20000038
        0x0000091a:    7909        .y      LDRB     r1,[r1,#4]
        0x0000091c:    0089        ..      LSLS     r1,r1,#2
        0x0000091e:    5840        @X      LDR      r0,[r0,r1]
        0x00000920:    42a0        .B      CMP      r0,r4
        0x00000922:    d210        ..      BCS      0x946 ; USBD_GetDescriptor + 234
        0x00000924:    4843        CH      LDR      r0,[pc,#268] ; [0xa34] = 0x20000070
        0x00000926:    6800        .h      LDR      r0,[r0,#0]
        0x00000928:    6900        .i      LDR      r0,[r0,#0x10]
        0x0000092a:    4941        AI      LDR      r1,[pc,#260] ; [0xa30] = 0x20000038
        0x0000092c:    7909        .y      LDRB     r1,[r1,#4]
        0x0000092e:    0089        ..      LSLS     r1,r1,#2
        0x00000930:    5844        DX      LDR      r4,[r0,r1]
        0x00000932:    4841        AH      LDR      r0,[pc,#260] ; [0xa38] = 0x20000060
        0x00000934:    6801        .h      LDR      r1,[r0,#0]
        0x00000936:    4620         F      MOV      r0,r4
        0x00000938:    f7fffc00    ....    BL       __aeabi_uidiv ; 0x13c
        0x0000093c:    2900        .)      CMP      r1,#0
        0x0000093e:    d102        ..      BNE      0x946 ; USBD_GetDescriptor + 234
        0x00000940:    2001        .       MOVS     r0,#1
        0x00000942:    493a        :I      LDR      r1,[pc,#232] ; [0xa2c] = 0x20000068
        0x00000944:    7008        .p      STRB     r0,[r1,#0]
        0x00000946:    493b        ;I      LDR      r1,[pc,#236] ; [0xa34] = 0x20000070
        0x00000948:    6809        .h      LDR      r1,[r1,#0]
        0x0000094a:    68c9        .h      LDR      r1,[r1,#0xc]
        0x0000094c:    4a38        8J      LDR      r2,[pc,#224] ; [0xa30] = 0x20000038
        0x0000094e:    7912        .y      LDRB     r2,[r2,#4]
        0x00000950:    0092        ..      LSLS     r2,r2,#2
        0x00000952:    5888        .X      LDR      r0,[r1,r2]
        0x00000954:    4621        !F      MOV      r1,r4
        0x00000956:    f000f967    ..g.    BL       USBD_PrepareCtrlIn ; 0xc28
        0x0000095a:    e065        e.      B        0xa28 ; USBD_GetDescriptor + 460
        0x0000095c:    e038        8.      B        0x9d0 ; USBD_GetDescriptor + 372
        0x0000095e:    e056        V.      B        0xa0e ; USBD_GetDescriptor + 434
        0x00000960:    4833        3H      LDR      r0,[pc,#204] ; [0xa30] = 0x20000038
        0x00000962:    7880        .x      LDRB     r0,[r0,#2]
        0x00000964:    2804        .(      CMP      r0,#4
        0x00000966:    da26        &.      BGE      0x9b6 ; USBD_GetDescriptor + 346
        0x00000968:    4832        2H      LDR      r0,[pc,#200] ; [0xa34] = 0x20000070
        0x0000096a:    6800        .h      LDR      r0,[r0,#0]
        0x0000096c:    6880        .h      LDR      r0,[r0,#8]
        0x0000096e:    4930        0I      LDR      r1,[pc,#192] ; [0xa30] = 0x20000038
        0x00000970:    7889        .x      LDRB     r1,[r1,#2]
        0x00000972:    0089        ..      LSLS     r1,r1,#2
        0x00000974:    5840        @X      LDR      r0,[r0,r1]
        0x00000976:    7800        .x      LDRB     r0,[r0,#0]
        0x00000978:    42a0        .B      CMP      r0,r4
        0x0000097a:    d211        ..      BCS      0x9a0 ; USBD_GetDescriptor + 324
        0x0000097c:    482d        -H      LDR      r0,[pc,#180] ; [0xa34] = 0x20000070
        0x0000097e:    6800        .h      LDR      r0,[r0,#0]
        0x00000980:    6880        .h      LDR      r0,[r0,#8]
        0x00000982:    492b        +I      LDR      r1,[pc,#172] ; [0xa30] = 0x20000038
        0x00000984:    7889        .x      LDRB     r1,[r1,#2]
        0x00000986:    0089        ..      LSLS     r1,r1,#2
        0x00000988:    5840        @X      LDR      r0,[r0,r1]
        0x0000098a:    7804        .x      LDRB     r4,[r0,#0]
        0x0000098c:    482a        *H      LDR      r0,[pc,#168] ; [0xa38] = 0x20000060
        0x0000098e:    6801        .h      LDR      r1,[r0,#0]
        0x00000990:    4620         F      MOV      r0,r4
        0x00000992:    f7fffbd3    ....    BL       __aeabi_uidiv ; 0x13c
        0x00000996:    2900        .)      CMP      r1,#0
        0x00000998:    d102        ..      BNE      0x9a0 ; USBD_GetDescriptor + 324
        0x0000099a:    2001        .       MOVS     r0,#1
        0x0000099c:    4923        #I      LDR      r1,[pc,#140] ; [0xa2c] = 0x20000068
        0x0000099e:    7008        .p      STRB     r0,[r1,#0]
        0x000009a0:    4924        $I      LDR      r1,[pc,#144] ; [0xa34] = 0x20000070
        0x000009a2:    6809        .h      LDR      r1,[r1,#0]
        0x000009a4:    6889        .h      LDR      r1,[r1,#8]
        0x000009a6:    4a22        "J      LDR      r2,[pc,#136] ; [0xa30] = 0x20000038
        0x000009a8:    7892        .x      LDRB     r2,[r2,#2]
        0x000009aa:    0092        ..      LSLS     r2,r2,#2
        0x000009ac:    5888        .X      LDR      r0,[r1,r2]
        0x000009ae:    4621        !F      MOV      r1,r4
        0x000009b0:    f000f93a    ..:.    BL       USBD_PrepareCtrlIn ; 0xc28
        0x000009b4:    e038        8.      B        0xa28 ; USBD_GetDescriptor + 460
        0x000009b6:    4821        !H      LDR      r0,[pc,#132] ; [0xa3c] = 0x40060500
        0x000009b8:    68c0        .h      LDR      r0,[r0,#0xc]
        0x000009ba:    2102        .!      MOVS     r1,#2
        0x000009bc:    4308        .C      ORRS     r0,r0,r1
        0x000009be:    491f        .I      LDR      r1,[pc,#124] ; [0xa3c] = 0x40060500
        0x000009c0:    60c8        .`      STR      r0,[r1,#0xc]
        0x000009c2:    4608        .F      MOV      r0,r1
        0x000009c4:    69c0        .i      LDR      r0,[r0,#0x1c]
        0x000009c6:    2102        .!      MOVS     r1,#2
        0x000009c8:    4308        .C      ORRS     r0,r0,r1
        0x000009ca:    491c        .I      LDR      r1,[pc,#112] ; [0xa3c] = 0x40060500
        0x000009cc:    61c8        .a      STR      r0,[r1,#0x1c]
        0x000009ce:    e02b        +.      B        0xa28 ; USBD_GetDescriptor + 460
        0x000009d0:    4818        .H      LDR      r0,[pc,#96] ; [0xa34] = 0x20000070
        0x000009d2:    6800        .h      LDR      r0,[r0,#0]
        0x000009d4:    6980        .i      LDR      r0,[r0,#0x18]
        0x000009d6:    2800        .(      CMP      r0,#0
        0x000009d8:    d10c        ..      BNE      0x9f4 ; USBD_GetDescriptor + 408
        0x000009da:    4818        .H      LDR      r0,[pc,#96] ; [0xa3c] = 0x40060500
        0x000009dc:    68c0        .h      LDR      r0,[r0,#0xc]
        0x000009de:    2102        .!      MOVS     r1,#2
        0x000009e0:    4308        .C      ORRS     r0,r0,r1
        0x000009e2:    4916        .I      LDR      r1,[pc,#88] ; [0xa3c] = 0x40060500
        0x000009e4:    60c8        .`      STR      r0,[r1,#0xc]
        0x000009e6:    4608        .F      MOV      r0,r1
        0x000009e8:    69c0        .i      LDR      r0,[r0,#0x1c]
        0x000009ea:    2102        .!      MOVS     r1,#2
        0x000009ec:    4308        .C      ORRS     r0,r0,r1
        0x000009ee:    4913        .I      LDR      r1,[pc,#76] ; [0xa3c] = 0x40060500
        0x000009f0:    61c8        .a      STR      r0,[r1,#0x1c]
        0x000009f2:    e00b        ..      B        0xa0c ; USBD_GetDescriptor + 432
        0x000009f4:    2c0c        .,      CMP      r4,#0xc
        0x000009f6:    d201        ..      BCS      0x9fc ; USBD_GetDescriptor + 416
        0x000009f8:    4620         F      MOV      r0,r4
        0x000009fa:    e000        ..      B        0x9fe ; USBD_GetDescriptor + 418
        0x000009fc:    200c        .       MOVS     r0,#0xc
        0x000009fe:    4604        .F      MOV      r4,r0
        0x00000a00:    490c        .I      LDR      r1,[pc,#48] ; [0xa34] = 0x20000070
        0x00000a02:    6809        .h      LDR      r1,[r1,#0]
        0x00000a04:    6988        .i      LDR      r0,[r1,#0x18]
        0x00000a06:    4621        !F      MOV      r1,r4
        0x00000a08:    f000f90e    ....    BL       USBD_PrepareCtrlIn ; 0xc28
        0x00000a0c:    e00c        ..      B        0xa28 ; USBD_GetDescriptor + 460
        0x00000a0e:    480b        .H      LDR      r0,[pc,#44] ; [0xa3c] = 0x40060500
        0x00000a10:    68c0        .h      LDR      r0,[r0,#0xc]
        0x00000a12:    2102        .!      MOVS     r1,#2
        0x00000a14:    4308        .C      ORRS     r0,r0,r1
        0x00000a16:    4909        .I      LDR      r1,[pc,#36] ; [0xa3c] = 0x40060500
        0x00000a18:    60c8        .`      STR      r0,[r1,#0xc]
        0x00000a1a:    4608        .F      MOV      r0,r1
        0x00000a1c:    69c0        .i      LDR      r0,[r0,#0x1c]
        0x00000a1e:    2102        .!      MOVS     r1,#2
        0x00000a20:    4308        .C      ORRS     r0,r0,r1
        0x00000a22:    4906        .I      LDR      r1,[pc,#24] ; [0xa3c] = 0x40060500
        0x00000a24:    61c8        .a      STR      r0,[r1,#0x1c]
        0x00000a26:    bf00        ..      NOP      
        0x00000a28:    bf00        ..      NOP      
        0x00000a2a:    bd70        p.      POP      {r4-r6,pc}
    $d
        0x00000a2c:    20000068    h..     DCD    536871016
        0x00000a30:    20000038    8..     DCD    536870968
        0x00000a34:    20000070    p..     DCD    536871024
        0x00000a38:    20000060    `..     DCD    536871008
        0x00000a3c:    40060500    ...@    DCD    1074136320
    $t
    i.USBD_GetSetupPacket
    USBD_GetSetupPacket
        0x00000a40:    b510        ..      PUSH     {r4,lr}
        0x00000a42:    4604        .F      MOV      r4,r0
        0x00000a44:    2208        ."      MOVS     r2,#8
        0x00000a46:    4902        .I      LDR      r1,[pc,#8] ; [0xa50] = 0x20000038
        0x00000a48:    4620         F      MOV      r0,r4
        0x00000a4a:    f000f8bd    ....    BL       USBD_MemCopy ; 0xbc8
        0x00000a4e:    bd10        ..      POP      {r4,pc}
    $d
        0x00000a50:    20000038    8..     DCD    536870968
    $t
    i.USBD_IRQHandler
    USBD_IRQHandler
        0x00000a54:    b570        p.      PUSH     {r4-r6,lr}
        0x00000a56:    485a        ZH      LDR      r0,[pc,#360] ; [0xbc0] = 0x40060000
        0x00000a58:    6844        Dh      LDR      r4,[r0,#4]
        0x00000a5a:    6900        .i      LDR      r0,[r0,#0x10]
        0x00000a5c:    0705        ..      LSLS     r5,r0,#28
        0x00000a5e:    0f2d        -.      LSRS     r5,r5,#28
        0x00000a60:    2004        .       MOVS     r0,#4
        0x00000a62:    4020         @      ANDS     r0,r0,r4
        0x00000a64:    2800        .(      CMP      r0,#0
        0x00000a66:    d015        ..      BEQ      0xa94 ; USBD_IRQHandler + 64
        0x00000a68:    2004        .       MOVS     r0,#4
        0x00000a6a:    4955        UI      LDR      r1,[pc,#340] ; [0xbc0] = 0x40060000
        0x00000a6c:    6048        H`      STR      r0,[r1,#4]
        0x00000a6e:    4608        .F      MOV      r0,r1
        0x00000a70:    6940        @i      LDR      r0,[r0,#0x14]
        0x00000a72:    07c0        ..      LSLS     r0,r0,#31
        0x00000a74:    0fc0        ..      LSRS     r0,r0,#31
        0x00000a76:    2800        .(      CMP      r0,#0
        0x00000a78:    d006        ..      BEQ      0xa88 ; USBD_IRQHandler + 52
        0x00000a7a:    4608        .F      MOV      r0,r1
        0x00000a7c:    6900        .i      LDR      r0,[r0,#0x10]
        0x00000a7e:    2190        .!      MOVS     r1,#0x90
        0x00000a80:    4308        .C      ORRS     r0,r0,r1
        0x00000a82:    494f        OI      LDR      r1,[pc,#316] ; [0xbc0] = 0x40060000
        0x00000a84:    6108        .a      STR      r0,[r1,#0x10]
        0x00000a86:    e005        ..      B        0xa94 ; USBD_IRQHandler + 64
        0x00000a88:    484d        MH      LDR      r0,[pc,#308] ; [0xbc0] = 0x40060000
        0x00000a8a:    6900        .i      LDR      r0,[r0,#0x10]
        0x00000a8c:    2180        .!      MOVS     r1,#0x80
        0x00000a8e:    4388        .C      BICS     r0,r0,r1
        0x00000a90:    494b        KI      LDR      r1,[pc,#300] ; [0xbc0] = 0x40060000
        0x00000a92:    6108        .a      STR      r0,[r1,#0x10]
        0x00000a94:    07e0        ..      LSLS     r0,r4,#31
        0x00000a96:    0fc0        ..      LSRS     r0,r0,#31
        0x00000a98:    2800        .(      CMP      r0,#0
        0x00000a9a:    d021        !.      BEQ      0xae0 ; USBD_IRQHandler + 140
        0x00000a9c:    2001        .       MOVS     r0,#1
        0x00000a9e:    4948        HI      LDR      r1,[pc,#288] ; [0xbc0] = 0x40060000
        0x00000aa0:    6048        H`      STR      r0,[r1,#4]
        0x00000aa2:    4028        (@      ANDS     r0,r0,r5
        0x00000aa4:    2800        .(      CMP      r0,#0
        0x00000aa6:    d007        ..      BEQ      0xab8 ; USBD_IRQHandler + 100
        0x00000aa8:    4608        .F      MOV      r0,r1
        0x00000aaa:    6900        .i      LDR      r0,[r0,#0x10]
        0x00000aac:    2190        .!      MOVS     r1,#0x90
        0x00000aae:    4308        .C      ORRS     r0,r0,r1
        0x00000ab0:    4943        CI      LDR      r1,[pc,#268] ; [0xbc0] = 0x40060000
        0x00000ab2:    6108        .a      STR      r0,[r1,#0x10]
        0x00000ab4:    f000fb58    ..X.    BL       USBD_SwReset ; 0x1168
        0x00000ab8:    2002        .       MOVS     r0,#2
        0x00000aba:    4028        (@      ANDS     r0,r0,r5
        0x00000abc:    2800        .(      CMP      r0,#0
        0x00000abe:    d005        ..      BEQ      0xacc ; USBD_IRQHandler + 120
        0x00000ac0:    483f        ?H      LDR      r0,[pc,#252] ; [0xbc0] = 0x40060000
        0x00000ac2:    6900        .i      LDR      r0,[r0,#0x10]
        0x00000ac4:    2110        .!      MOVS     r1,#0x10
        0x00000ac6:    4388        .C      BICS     r0,r0,r1
        0x00000ac8:    493d        =I      LDR      r1,[pc,#244] ; [0xbc0] = 0x40060000
        0x00000aca:    6108        .a      STR      r0,[r1,#0x10]
        0x00000acc:    2004        .       MOVS     r0,#4
        0x00000ace:    4028        (@      ANDS     r0,r0,r5
        0x00000ad0:    2800        .(      CMP      r0,#0
        0x00000ad2:    d005        ..      BEQ      0xae0 ; USBD_IRQHandler + 140
        0x00000ad4:    483a        :H      LDR      r0,[pc,#232] ; [0xbc0] = 0x40060000
        0x00000ad6:    6900        .i      LDR      r0,[r0,#0x10]
        0x00000ad8:    2190        .!      MOVS     r1,#0x90
        0x00000ada:    4308        .C      ORRS     r0,r0,r1
        0x00000adc:    4938        8I      LDR      r1,[pc,#224] ; [0xbc0] = 0x40060000
        0x00000ade:    6108        .a      STR      r0,[r1,#0x10]
        0x00000ae0:    2008        .       MOVS     r0,#8
        0x00000ae2:    4020         @      ANDS     r0,r0,r4
        0x00000ae4:    2800        .(      CMP      r0,#0
        0x00000ae6:    d002        ..      BEQ      0xaee ; USBD_IRQHandler + 154
        0x00000ae8:    2008        .       MOVS     r0,#8
        0x00000aea:    4935        5I      LDR      r1,[pc,#212] ; [0xbc0] = 0x40060000
        0x00000aec:    6048        H`      STR      r0,[r1,#4]
        0x00000aee:    2002        .       MOVS     r0,#2
        0x00000af0:    4020         @      ANDS     r0,r0,r4
        0x00000af2:    2800        .(      CMP      r0,#0
        0x00000af4:    d063        c.      BEQ      0xbbe ; USBD_IRQHandler + 362
        0x00000af6:    0fe0        ..      LSRS     r0,r4,#31
        0x00000af8:    07c0        ..      LSLS     r0,r0,#31
        0x00000afa:    2800        .(      CMP      r0,#0
        0x00000afc:    d011        ..      BEQ      0xb22 ; USBD_IRQHandler + 206
        0x00000afe:    2001        .       MOVS     r0,#1
        0x00000b00:    07c0        ..      LSLS     r0,r0,#31
        0x00000b02:    492f        /I      LDR      r1,[pc,#188] ; [0xbc0] = 0x40060000
        0x00000b04:    6048        H`      STR      r0,[r1,#4]
        0x00000b06:    482f        /H      LDR      r0,[pc,#188] ; [0xbc4] = 0x40060500
        0x00000b08:    68c0        .h      LDR      r0,[r0,#0xc]
        0x00000b0a:    2101        .!      MOVS     r1,#1
        0x00000b0c:    4308        .C      ORRS     r0,r0,r1
        0x00000b0e:    492d        -I      LDR      r1,[pc,#180] ; [0xbc4] = 0x40060500
        0x00000b10:    60c8        .`      STR      r0,[r1,#0xc]
        0x00000b12:    4608        .F      MOV      r0,r1
        0x00000b14:    69c0        .i      LDR      r0,[r0,#0x1c]
        0x00000b16:    2101        .!      MOVS     r1,#1
        0x00000b18:    4308        .C      ORRS     r0,r0,r1
        0x00000b1a:    492a        *I      LDR      r1,[pc,#168] ; [0xbc4] = 0x40060500
        0x00000b1c:    61c8        .a      STR      r0,[r1,#0x1c]
        0x00000b1e:    f000f8dd    ....    BL       USBD_ProcessSetupPacket ; 0xcdc
        0x00000b22:    2001        .       MOVS     r0,#1
        0x00000b24:    0400        ..      LSLS     r0,r0,#16
        0x00000b26:    4020         @      ANDS     r0,r0,r4
        0x00000b28:    2800        .(      CMP      r0,#0
        0x00000b2a:    d005        ..      BEQ      0xb38 ; USBD_IRQHandler + 228
        0x00000b2c:    2001        .       MOVS     r0,#1
        0x00000b2e:    0400        ..      LSLS     r0,r0,#16
        0x00000b30:    4923        #I      LDR      r1,[pc,#140] ; [0xbc0] = 0x40060000
        0x00000b32:    6048        H`      STR      r0,[r1,#4]
        0x00000b34:    f7fffdd8    ....    BL       USBD_CtrlIn ; 0x6e8
        0x00000b38:    2001        .       MOVS     r0,#1
        0x00000b3a:    0440        @.      LSLS     r0,r0,#17
        0x00000b3c:    4020         @      ANDS     r0,r0,r4
        0x00000b3e:    2800        .(      CMP      r0,#0
        0x00000b40:    d005        ..      BEQ      0xb4e ; USBD_IRQHandler + 250
        0x00000b42:    2001        .       MOVS     r0,#1
        0x00000b44:    0440        @.      LSLS     r0,r0,#17
        0x00000b46:    491e        .I      LDR      r1,[pc,#120] ; [0xbc0] = 0x40060000
        0x00000b48:    6048        H`      STR      r0,[r1,#4]
        0x00000b4a:    f7fffe3b    ..;.    BL       USBD_CtrlOut ; 0x7c4
        0x00000b4e:    2001        .       MOVS     r0,#1
        0x00000b50:    0480        ..      LSLS     r0,r0,#18
        0x00000b52:    4020         @      ANDS     r0,r0,r4
        0x00000b54:    2800        .(      CMP      r0,#0
        0x00000b56:    d005        ..      BEQ      0xb64 ; USBD_IRQHandler + 272
        0x00000b58:    2001        .       MOVS     r0,#1
        0x00000b5a:    0480        ..      LSLS     r0,r0,#18
        0x00000b5c:    4918        .I      LDR      r1,[pc,#96] ; [0xbc0] = 0x40060000
        0x00000b5e:    6048        H`      STR      r0,[r1,#4]
        0x00000b60:    f7fffc5c    ..\.    BL       EP2_Handler ; 0x41c
        0x00000b64:    2001        .       MOVS     r0,#1
        0x00000b66:    04c0        ..      LSLS     r0,r0,#19
        0x00000b68:    4020         @      ANDS     r0,r0,r4
        0x00000b6a:    2800        .(      CMP      r0,#0
        0x00000b6c:    d003        ..      BEQ      0xb76 ; USBD_IRQHandler + 290
        0x00000b6e:    2001        .       MOVS     r0,#1
        0x00000b70:    04c0        ..      LSLS     r0,r0,#19
        0x00000b72:    4913        .I      LDR      r1,[pc,#76] ; [0xbc0] = 0x40060000
        0x00000b74:    6048        H`      STR      r0,[r1,#4]
        0x00000b76:    2001        .       MOVS     r0,#1
        0x00000b78:    0500        ..      LSLS     r0,r0,#20
        0x00000b7a:    4020         @      ANDS     r0,r0,r4
        0x00000b7c:    2800        .(      CMP      r0,#0
        0x00000b7e:    d003        ..      BEQ      0xb88 ; USBD_IRQHandler + 308
        0x00000b80:    2001        .       MOVS     r0,#1
        0x00000b82:    0500        ..      LSLS     r0,r0,#20
        0x00000b84:    490e        .I      LDR      r1,[pc,#56] ; [0xbc0] = 0x40060000
        0x00000b86:    6048        H`      STR      r0,[r1,#4]
        0x00000b88:    2001        .       MOVS     r0,#1
        0x00000b8a:    0540        @.      LSLS     r0,r0,#21
        0x00000b8c:    4020         @      ANDS     r0,r0,r4
        0x00000b8e:    2800        .(      CMP      r0,#0
        0x00000b90:    d003        ..      BEQ      0xb9a ; USBD_IRQHandler + 326
        0x00000b92:    2001        .       MOVS     r0,#1
        0x00000b94:    0540        @.      LSLS     r0,r0,#21
        0x00000b96:    490a        .I      LDR      r1,[pc,#40] ; [0xbc0] = 0x40060000
        0x00000b98:    6048        H`      STR      r0,[r1,#4]
        0x00000b9a:    2001        .       MOVS     r0,#1
        0x00000b9c:    0580        ..      LSLS     r0,r0,#22
        0x00000b9e:    4020         @      ANDS     r0,r0,r4
        0x00000ba0:    2800        .(      CMP      r0,#0
        0x00000ba2:    d003        ..      BEQ      0xbac ; USBD_IRQHandler + 344
        0x00000ba4:    2001        .       MOVS     r0,#1
        0x00000ba6:    0580        ..      LSLS     r0,r0,#22
        0x00000ba8:    4905        .I      LDR      r1,[pc,#20] ; [0xbc0] = 0x40060000
        0x00000baa:    6048        H`      STR      r0,[r1,#4]
        0x00000bac:    2001        .       MOVS     r0,#1
        0x00000bae:    05c0        ..      LSLS     r0,r0,#23
        0x00000bb0:    4020         @      ANDS     r0,r0,r4
        0x00000bb2:    2800        .(      CMP      r0,#0
        0x00000bb4:    d003        ..      BEQ      0xbbe ; USBD_IRQHandler + 362
        0x00000bb6:    2001        .       MOVS     r0,#1
        0x00000bb8:    05c0        ..      LSLS     r0,r0,#23
        0x00000bba:    4901        .I      LDR      r1,[pc,#4] ; [0xbc0] = 0x40060000
        0x00000bbc:    6048        H`      STR      r0,[r1,#4]
        0x00000bbe:    bd70        p.      POP      {r4-r6,pc}
    $d
        0x00000bc0:    40060000    ...@    DCD    1074135040
        0x00000bc4:    40060500    ...@    DCD    1074136320
    $t
    i.USBD_MemCopy
    USBD_MemCopy
        0x00000bc8:    b510        ..      PUSH     {r4,lr}
        0x00000bca:    e003        ..      B        0xbd4 ; USBD_MemCopy + 12
        0x00000bcc:    780b        .x      LDRB     r3,[r1,#0]
        0x00000bce:    7003        .p      STRB     r3,[r0,#0]
        0x00000bd0:    1c49        I.      ADDS     r1,r1,#1
        0x00000bd2:    1c40        @.      ADDS     r0,r0,#1
        0x00000bd4:    4613        .F      MOV      r3,r2
        0x00000bd6:    1e52        R.      SUBS     r2,r2,#1
        0x00000bd8:    2b00        .+      CMP      r3,#0
        0x00000bda:    d1f7        ..      BNE      0xbcc ; USBD_MemCopy + 4
        0x00000bdc:    bd10        ..      POP      {r4,pc}
        0x00000bde:    0000        ..      MOVS     r0,r0
    i.USBD_Open
    USBD_Open
        0x00000be0:    b510        ..      PUSH     {r4,lr}
        0x00000be2:    4b0c        .K      LDR      r3,[pc,#48] ; [0xc14] = 0x20000070
        0x00000be4:    6018        .`      STR      r0,[r3,#0]
        0x00000be6:    4b0c        .K      LDR      r3,[pc,#48] ; [0xc18] = 0x20000078
        0x00000be8:    6019        .`      STR      r1,[r3,#0]
        0x00000bea:    4b0c        .K      LDR      r3,[pc,#48] ; [0xc1c] = 0x2000007c
        0x00000bec:    601a        .`      STR      r2,[r3,#0]
        0x00000bee:    4b09        .K      LDR      r3,[pc,#36] ; [0xc14] = 0x20000070
        0x00000bf0:    681b        .h      LDR      r3,[r3,#0]
        0x00000bf2:    681b        .h      LDR      r3,[r3,#0]
        0x00000bf4:    79db        .y      LDRB     r3,[r3,#7]
        0x00000bf6:    4c0a        .L      LDR      r4,[pc,#40] ; [0xc20] = 0x20000060
        0x00000bf8:    6023        #`      STR      r3,[r4,#0]
        0x00000bfa:    237d        }#      MOVS     r3,#0x7d
        0x00000bfc:    011b        ..      LSLS     r3,r3,#4
        0x00000bfe:    4c09        .L      LDR      r4,[pc,#36] ; [0xc24] = 0x40060000
        0x00000c00:    6123        #a      STR      r3,[r4,#0x10]
        0x00000c02:    4b08        .K      LDR      r3,[pc,#32] ; [0xc24] = 0x40060000
        0x00000c04:    3380        .3      ADDS     r3,r3,#0x80
        0x00000c06:    691b        .i      LDR      r3,[r3,#0x10]
        0x00000c08:    2401        .$      MOVS     r4,#1
        0x00000c0a:    4323        #C      ORRS     r3,r3,r4
        0x00000c0c:    4c05        .L      LDR      r4,[pc,#20] ; [0xc24] = 0x40060000
        0x00000c0e:    3480        .4      ADDS     r4,r4,#0x80
        0x00000c10:    6123        #a      STR      r3,[r4,#0x10]
        0x00000c12:    bd10        ..      POP      {r4,pc}
    $d
        0x00000c14:    20000070    p..     DCD    536871024
        0x00000c18:    20000078    x..     DCD    536871032
        0x00000c1c:    2000007c    |..     DCD    536871036
        0x00000c20:    20000060    `..     DCD    536871008
        0x00000c24:    40060000    ...@    DCD    1074135040
    $t
    i.USBD_PrepareCtrlIn
    USBD_PrepareCtrlIn
        0x00000c28:    b570        p.      PUSH     {r4-r6,lr}
        0x00000c2a:    4605        .F      MOV      r5,r0
        0x00000c2c:    460c        .F      MOV      r4,r1
        0x00000c2e:    481b        .H      LDR      r0,[pc,#108] ; [0xc9c] = 0x20000060
        0x00000c30:    6800        .h      LDR      r0,[r0,#0]
        0x00000c32:    4284        .B      CMP      r4,r0
        0x00000c34:    d91c        ..      BLS      0xc70 ; USBD_PrepareCtrlIn + 72
        0x00000c36:    4819        .H      LDR      r0,[pc,#100] ; [0xc9c] = 0x20000060
        0x00000c38:    6800        .h      LDR      r0,[r0,#0]
        0x00000c3a:    1828        (.      ADDS     r0,r5,r0
        0x00000c3c:    4918        .I      LDR      r1,[pc,#96] ; [0xca0] = 0x20000044
        0x00000c3e:    6008        .`      STR      r0,[r1,#0]
        0x00000c40:    4816        .H      LDR      r0,[pc,#88] ; [0xc9c] = 0x20000060
        0x00000c42:    6800        .h      LDR      r0,[r0,#0]
        0x00000c44:    1a20         .      SUBS     r0,r4,r0
        0x00000c46:    4917        .I      LDR      r1,[pc,#92] ; [0xca4] = 0x20000048
        0x00000c48:    6008        .`      STR      r0,[r1,#0]
        0x00000c4a:    4817        .H      LDR      r0,[pc,#92] ; [0xca8] = 0x40060500
        0x00000c4c:    6880        .h      LDR      r0,[r0,#8]
        0x00000c4e:    2180        .!      MOVS     r1,#0x80
        0x00000c50:    4308        .C      ORRS     r0,r0,r1
        0x00000c52:    4915        .I      LDR      r1,[pc,#84] ; [0xca8] = 0x40060500
        0x00000c54:    6088        .`      STR      r0,[r1,#8]
        0x00000c56:    6809        .h      LDR      r1,[r1,#0]
        0x00000c58:    4a14        .J      LDR      r2,[pc,#80] ; [0xcac] = 0x40060100
        0x00000c5a:    1888        ..      ADDS     r0,r1,r2
        0x00000c5c:    490f        .I      LDR      r1,[pc,#60] ; [0xc9c] = 0x20000060
        0x00000c5e:    680a        .h      LDR      r2,[r1,#0]
        0x00000c60:    4629        )F      MOV      r1,r5
        0x00000c62:    f7ffffb1    ....    BL       USBD_MemCopy ; 0xbc8
        0x00000c66:    480d        .H      LDR      r0,[pc,#52] ; [0xc9c] = 0x20000060
        0x00000c68:    6800        .h      LDR      r0,[r0,#0]
        0x00000c6a:    490f        .I      LDR      r1,[pc,#60] ; [0xca8] = 0x40060500
        0x00000c6c:    6048        H`      STR      r0,[r1,#4]
        0x00000c6e:    e013        ..      B        0xc98 ; USBD_PrepareCtrlIn + 112
        0x00000c70:    2000        .       MOVS     r0,#0
        0x00000c72:    490b        .I      LDR      r1,[pc,#44] ; [0xca0] = 0x20000044
        0x00000c74:    6008        .`      STR      r0,[r1,#0]
        0x00000c76:    490b        .I      LDR      r1,[pc,#44] ; [0xca4] = 0x20000048
        0x00000c78:    6008        .`      STR      r0,[r1,#0]
        0x00000c7a:    480b        .H      LDR      r0,[pc,#44] ; [0xca8] = 0x40060500
        0x00000c7c:    6880        .h      LDR      r0,[r0,#8]
        0x00000c7e:    2180        .!      MOVS     r1,#0x80
        0x00000c80:    4308        .C      ORRS     r0,r0,r1
        0x00000c82:    4909        .I      LDR      r1,[pc,#36] ; [0xca8] = 0x40060500
        0x00000c84:    6088        .`      STR      r0,[r1,#8]
        0x00000c86:    6809        .h      LDR      r1,[r1,#0]
        0x00000c88:    4a08        .J      LDR      r2,[pc,#32] ; [0xcac] = 0x40060100
        0x00000c8a:    1888        ..      ADDS     r0,r1,r2
        0x00000c8c:    4622        "F      MOV      r2,r4
        0x00000c8e:    4629        )F      MOV      r1,r5
        0x00000c90:    f7ffff9a    ....    BL       USBD_MemCopy ; 0xbc8
        0x00000c94:    4804        .H      LDR      r0,[pc,#16] ; [0xca8] = 0x40060500
        0x00000c96:    6044        D`      STR      r4,[r0,#4]
        0x00000c98:    bd70        p.      POP      {r4-r6,pc}
    $d
        0x00000c9a:    0000        ..      DCW    0
        0x00000c9c:    20000060    `..     DCD    536871008
        0x00000ca0:    20000044    D..     DCD    536870980
        0x00000ca4:    20000048    H..     DCD    536870984
        0x00000ca8:    40060500    ...@    DCD    1074136320
        0x00000cac:    40060100    ...@    DCD    1074135296
    $t
    i.USBD_PrepareCtrlOut
    USBD_PrepareCtrlOut
        0x00000cb0:    4a05        .J      LDR      r2,[pc,#20] ; [0xcc8] = 0x2000004c
        0x00000cb2:    6010        .`      STR      r0,[r2,#0]
        0x00000cb4:    2200        ."      MOVS     r2,#0
        0x00000cb6:    4b05        .K      LDR      r3,[pc,#20] ; [0xccc] = 0x20000050
        0x00000cb8:    601a        .`      STR      r2,[r3,#0]
        0x00000cba:    4a05        .J      LDR      r2,[pc,#20] ; [0xcd0] = 0x20000054
        0x00000cbc:    6011        .`      STR      r1,[r2,#0]
        0x00000cbe:    4a05        .J      LDR      r2,[pc,#20] ; [0xcd4] = 0x20000060
        0x00000cc0:    6812        .h      LDR      r2,[r2,#0]
        0x00000cc2:    4b05        .K      LDR      r3,[pc,#20] ; [0xcd8] = 0x40060500
        0x00000cc4:    615a        Za      STR      r2,[r3,#0x14]
        0x00000cc6:    4770        pG      BX       lr
    $d
        0x00000cc8:    2000004c    L..     DCD    536870988
        0x00000ccc:    20000050    P..     DCD    536870992
        0x00000cd0:    20000054    T..     DCD    536870996
        0x00000cd4:    20000060    `..     DCD    536871008
        0x00000cd8:    40060500    ...@    DCD    1074136320
    $t
    i.USBD_ProcessSetupPacket
    USBD_ProcessSetupPacket
        0x00000cdc:    b510        ..      PUSH     {r4,lr}
        0x00000cde:    2000        .       MOVS     r0,#0
        0x00000ce0:    491b        .I      LDR      r1,[pc,#108] ; [0xd50] = 0x2000006c
        0x00000ce2:    6008        .`      STR      r0,[r1,#0]
        0x00000ce4:    481b        .H      LDR      r0,[pc,#108] ; [0xd54] = 0x40060000
        0x00000ce6:    6980        .i      LDR      r0,[r0,#0x18]
        0x00000ce8:    4a1b        .J      LDR      r2,[pc,#108] ; [0xd58] = 0x40060100
        0x00000cea:    1881        ..      ADDS     r1,r0,r2
        0x00000cec:    2208        ."      MOVS     r2,#8
        0x00000cee:    481b        .H      LDR      r0,[pc,#108] ; [0xd5c] = 0x20000038
        0x00000cf0:    f7ffff6a    ..j.    BL       USBD_MemCopy ; 0xbc8
        0x00000cf4:    4819        .H      LDR      r0,[pc,#100] ; [0xd5c] = 0x20000038
        0x00000cf6:    7800        .x      LDRB     r0,[r0,#0]
        0x00000cf8:    2160        `!      MOVS     r1,#0x60
        0x00000cfa:    4008        .@      ANDS     r0,r0,r1
        0x00000cfc:    2800        .(      CMP      r0,#0
        0x00000cfe:    d004        ..      BEQ      0xd0a ; USBD_ProcessSetupPacket + 46
        0x00000d00:    2820         (      CMP      r0,#0x20
        0x00000d02:    d005        ..      BEQ      0xd10 ; USBD_ProcessSetupPacket + 52
        0x00000d04:    2840        @(      CMP      r0,#0x40
        0x00000d06:    d113        ..      BNE      0xd30 ; USBD_ProcessSetupPacket + 84
        0x00000d08:    e00a        ..      B        0xd20 ; USBD_ProcessSetupPacket + 68
        0x00000d0a:    f000f84b    ..K.    BL       USBD_StandardRequest ; 0xda4
        0x00000d0e:    e01c        ..      B        0xd4a ; USBD_ProcessSetupPacket + 110
        0x00000d10:    4813        .H      LDR      r0,[pc,#76] ; [0xd60] = 0x20000078
        0x00000d12:    6800        .h      LDR      r0,[r0,#0]
        0x00000d14:    2800        .(      CMP      r0,#0
        0x00000d16:    d002        ..      BEQ      0xd1e ; USBD_ProcessSetupPacket + 66
        0x00000d18:    4811        .H      LDR      r0,[pc,#68] ; [0xd60] = 0x20000078
        0x00000d1a:    6800        .h      LDR      r0,[r0,#0]
        0x00000d1c:    4780        .G      BLX      r0
        0x00000d1e:    e014        ..      B        0xd4a ; USBD_ProcessSetupPacket + 110
        0x00000d20:    4810        .H      LDR      r0,[pc,#64] ; [0xd64] = 0x20000074
        0x00000d22:    6800        .h      LDR      r0,[r0,#0]
        0x00000d24:    2800        .(      CMP      r0,#0
        0x00000d26:    d002        ..      BEQ      0xd2e ; USBD_ProcessSetupPacket + 82
        0x00000d28:    480e        .H      LDR      r0,[pc,#56] ; [0xd64] = 0x20000074
        0x00000d2a:    6800        .h      LDR      r0,[r0,#0]
        0x00000d2c:    4780        .G      BLX      r0
        0x00000d2e:    e00c        ..      B        0xd4a ; USBD_ProcessSetupPacket + 110
        0x00000d30:    480d        .H      LDR      r0,[pc,#52] ; [0xd68] = 0x40060500
        0x00000d32:    68c0        .h      LDR      r0,[r0,#0xc]
        0x00000d34:    2102        .!      MOVS     r1,#2
        0x00000d36:    4308        .C      ORRS     r0,r0,r1
        0x00000d38:    490b        .I      LDR      r1,[pc,#44] ; [0xd68] = 0x40060500
        0x00000d3a:    60c8        .`      STR      r0,[r1,#0xc]
        0x00000d3c:    4608        .F      MOV      r0,r1
        0x00000d3e:    69c0        .i      LDR      r0,[r0,#0x1c]
        0x00000d40:    2102        .!      MOVS     r1,#2
        0x00000d42:    4308        .C      ORRS     r0,r0,r1
        0x00000d44:    4908        .I      LDR      r1,[pc,#32] ; [0xd68] = 0x40060500
        0x00000d46:    61c8        .a      STR      r0,[r1,#0x1c]
        0x00000d48:    bf00        ..      NOP      
        0x00000d4a:    bf00        ..      NOP      
        0x00000d4c:    bd10        ..      POP      {r4,pc}
    $d
        0x00000d4e:    0000        ..      DCW    0
        0x00000d50:    2000006c    l..     DCD    536871020
        0x00000d54:    40060000    ...@    DCD    1074135040
        0x00000d58:    40060100    ...@    DCD    1074135296
        0x00000d5c:    20000038    8..     DCD    536870968
        0x00000d60:    20000078    x..     DCD    536871032
        0x00000d64:    20000074    t..     DCD    536871028
        0x00000d68:    40060500    ...@    DCD    1074136320
    $t
    i.USBD_SetStall
    USBD_SetStall
        0x00000d6c:    b530        0.      PUSH     {r4,r5,lr}
        0x00000d6e:    4603        .F      MOV      r3,r0
        0x00000d70:    2100        .!      MOVS     r1,#0
        0x00000d72:    e010        ..      B        0xd96 ; USBD_SetStall + 42
        0x00000d74:    010c        ..      LSLS     r4,r1,#4
        0x00000d76:    4d0a        .M      LDR      r5,[pc,#40] ; [0xda0] = 0x40060508
        0x00000d78:    1960        `.      ADDS     r0,r4,r5
        0x00000d7a:    6802        .h      LDR      r2,[r0,#0]
        0x00000d7c:    0714        ..      LSLS     r4,r2,#28
        0x00000d7e:    0f24        $.      LSRS     r4,r4,#28
        0x00000d80:    429c        .B      CMP      r4,r3
        0x00000d82:    d107        ..      BNE      0xd94 ; USBD_SetStall + 40
        0x00000d84:    010c        ..      LSLS     r4,r1,#4
        0x00000d86:    1d2d        -.      ADDS     r5,r5,#4
        0x00000d88:    1960        `.      ADDS     r0,r4,r5
        0x00000d8a:    6802        .h      LDR      r2,[r0,#0]
        0x00000d8c:    2402        .$      MOVS     r4,#2
        0x00000d8e:    4314        .C      ORRS     r4,r4,r2
        0x00000d90:    6004        .`      STR      r4,[r0,#0]
        0x00000d92:    e002        ..      B        0xd9a ; USBD_SetStall + 46
        0x00000d94:    1c49        I.      ADDS     r1,r1,#1
        0x00000d96:    2908        .)      CMP      r1,#8
        0x00000d98:    dbec        ..      BLT      0xd74 ; USBD_SetStall + 8
        0x00000d9a:    bf00        ..      NOP      
        0x00000d9c:    bd30        0.      POP      {r4,r5,pc}
    $d
        0x00000d9e:    0000        ..      DCW    0
        0x00000da0:    40060508    ...@    DCD    1074136328
    $t
    i.USBD_StandardRequest
    USBD_StandardRequest
        0x00000da4:    b570        p.      PUSH     {r4-r6,lr}
        0x00000da6:    2000        .       MOVS     r0,#0
        0x00000da8:    49c8        .I      LDR      r1,[pc,#800] ; [0x10cc] = 0x20000044
        0x00000daa:    6008        .`      STR      r0,[r1,#0]
        0x00000dac:    49c8        .I      LDR      r1,[pc,#800] ; [0x10d0] = 0x20000048
        0x00000dae:    6008        .`      STR      r0,[r1,#0]
        0x00000db0:    48c8        .H      LDR      r0,[pc,#800] ; [0x10d4] = 0x20000038
        0x00000db2:    7800        .x      LDRB     r0,[r0,#0]
        0x00000db4:    2180        .!      MOVS     r1,#0x80
        0x00000db6:    4008        .@      ANDS     r0,r0,r1
        0x00000db8:    2800        .(      CMP      r0,#0
        0x00000dba:    d072        r.      BEQ      0xea2 ; USBD_StandardRequest + 254
        0x00000dbc:    48c5        .H      LDR      r0,[pc,#788] ; [0x10d4] = 0x20000038
        0x00000dbe:    7840        @x      LDRB     r0,[r0,#1]
        0x00000dc0:    2800        .(      CMP      r0,#0
        0x00000dc2:    d036        6.      BEQ      0xe32 ; USBD_StandardRequest + 142
        0x00000dc4:    2806        .(      CMP      r0,#6
        0x00000dc6:    d019        ..      BEQ      0xdfc ; USBD_StandardRequest + 88
        0x00000dc8:    2808        .(      CMP      r0,#8
        0x00000dca:    d002        ..      BEQ      0xdd2 ; USBD_StandardRequest + 46
        0x00000dcc:    280a        .(      CMP      r0,#0xa
        0x00000dce:    d169        i.      BNE      0xea4 ; USBD_StandardRequest + 256
        0x00000dd0:    e01b        ..      B        0xe0a ; USBD_StandardRequest + 102
        0x00000dd2:    48c1        .H      LDR      r0,[pc,#772] ; [0x10d8] = 0x2000005c
        0x00000dd4:    6800        .h      LDR      r0,[r0,#0]
        0x00000dd6:    b2c1        ..      UXTB     r1,r0
        0x00000dd8:    48c0        .H      LDR      r0,[pc,#768] ; [0x10dc] = 0x40060500
        0x00000dda:    6800        .h      LDR      r0,[r0,#0]
        0x00000ddc:    4ac0        .J      LDR      r2,[pc,#768] ; [0x10e0] = 0x40060100
        0x00000dde:    1880        ..      ADDS     r0,r0,r2
        0x00000de0:    7001        .p      STRB     r1,[r0,#0]
        0x00000de2:    48be        .H      LDR      r0,[pc,#760] ; [0x10dc] = 0x40060500
        0x00000de4:    6880        .h      LDR      r0,[r0,#8]
        0x00000de6:    2180        .!      MOVS     r1,#0x80
        0x00000de8:    4308        .C      ORRS     r0,r0,r1
        0x00000dea:    49bc        .I      LDR      r1,[pc,#752] ; [0x10dc] = 0x40060500
        0x00000dec:    6088        .`      STR      r0,[r1,#8]
        0x00000dee:    2001        .       MOVS     r0,#1
        0x00000df0:    6048        H`      STR      r0,[r1,#4]
        0x00000df2:    2100        .!      MOVS     r1,#0
        0x00000df4:    4608        .F      MOV      r0,r1
        0x00000df6:    f7ffff5b    ..[.    BL       USBD_PrepareCtrlOut ; 0xcb0
        0x00000dfa:    e093        ..      B        0xf24 ; USBD_StandardRequest + 384
        0x00000dfc:    f7fffd2e    ....    BL       USBD_GetDescriptor ; 0x85c
        0x00000e00:    2100        .!      MOVS     r1,#0
        0x00000e02:    4608        .F      MOV      r0,r1
        0x00000e04:    f7ffff54    ..T.    BL       USBD_PrepareCtrlOut ; 0xcb0
        0x00000e08:    e08c        ..      B        0xf24 ; USBD_StandardRequest + 384
        0x00000e0a:    48b6        .H      LDR      r0,[pc,#728] ; [0x10e4] = 0x20000064
        0x00000e0c:    6800        .h      LDR      r0,[r0,#0]
        0x00000e0e:    49b3        .I      LDR      r1,[pc,#716] ; [0x10dc] = 0x40060500
        0x00000e10:    6809        .h      LDR      r1,[r1,#0]
        0x00000e12:    4ab3        .J      LDR      r2,[pc,#716] ; [0x10e0] = 0x40060100
        0x00000e14:    1889        ..      ADDS     r1,r1,r2
        0x00000e16:    7008        .p      STRB     r0,[r1,#0]
        0x00000e18:    48b0        .H      LDR      r0,[pc,#704] ; [0x10dc] = 0x40060500
        0x00000e1a:    6880        .h      LDR      r0,[r0,#8]
        0x00000e1c:    2180        .!      MOVS     r1,#0x80
        0x00000e1e:    4308        .C      ORRS     r0,r0,r1
        0x00000e20:    49ae        .I      LDR      r1,[pc,#696] ; [0x10dc] = 0x40060500
        0x00000e22:    6088        .`      STR      r0,[r1,#8]
        0x00000e24:    2001        .       MOVS     r0,#1
        0x00000e26:    6048        H`      STR      r0,[r1,#4]
        0x00000e28:    2100        .!      MOVS     r1,#0
        0x00000e2a:    4608        .F      MOV      r0,r1
        0x00000e2c:    f7ffff40    ..@.    BL       USBD_PrepareCtrlOut ; 0xcb0
        0x00000e30:    e078        x.      B        0xf24 ; USBD_StandardRequest + 384
        0x00000e32:    48a8        .H      LDR      r0,[pc,#672] ; [0x10d4] = 0x20000038
        0x00000e34:    7800        .x      LDRB     r0,[r0,#0]
        0x00000e36:    2880        .(      CMP      r0,#0x80
        0x00000e38:    d11d        ..      BNE      0xe76 ; USBD_StandardRequest + 210
        0x00000e3a:    2000        .       MOVS     r0,#0
        0x00000e3c:    49aa        .I      LDR      r1,[pc,#680] ; [0x10e8] = 0x20000070
        0x00000e3e:    6809        .h      LDR      r1,[r1,#0]
        0x00000e40:    6849        Ih      LDR      r1,[r1,#4]
        0x00000e42:    79c9        .y      LDRB     r1,[r1,#7]
        0x00000e44:    2240        @"      MOVS     r2,#0x40
        0x00000e46:    4011        .@      ANDS     r1,r1,r2
        0x00000e48:    2900        .)      CMP      r1,#0
        0x00000e4a:    d001        ..      BEQ      0xe50 ; USBD_StandardRequest + 172
        0x00000e4c:    2101        .!      MOVS     r1,#1
        0x00000e4e:    4308        .C      ORRS     r0,r0,r1
        0x00000e50:    49a5        .I      LDR      r1,[pc,#660] ; [0x10e8] = 0x20000070
        0x00000e52:    6809        .h      LDR      r1,[r1,#0]
        0x00000e54:    6849        Ih      LDR      r1,[r1,#4]
        0x00000e56:    79c9        .y      LDRB     r1,[r1,#7]
        0x00000e58:    2220         "      MOVS     r2,#0x20
        0x00000e5a:    4011        .@      ANDS     r1,r1,r2
        0x00000e5c:    2900        .)      CMP      r1,#0
        0x00000e5e:    d004        ..      BEQ      0xe6a ; USBD_StandardRequest + 198
        0x00000e60:    49a2        .I      LDR      r1,[pc,#648] ; [0x10ec] = 0x20000040
        0x00000e62:    7809        .x      LDRB     r1,[r1,#0]
        0x00000e64:    0049        I.      LSLS     r1,r1,#1
        0x00000e66:    4301        .C      ORRS     r1,r1,r0
        0x00000e68:    b2c8        ..      UXTB     r0,r1
        0x00000e6a:    499c        .I      LDR      r1,[pc,#624] ; [0x10dc] = 0x40060500
        0x00000e6c:    6809        .h      LDR      r1,[r1,#0]
        0x00000e6e:    4a9c        .J      LDR      r2,[pc,#624] ; [0x10e0] = 0x40060100
        0x00000e70:    1889        ..      ADDS     r1,r1,r2
        0x00000e72:    7008        .p      STRB     r0,[r1,#0]
        0x00000e74:    e036        6.      B        0xee4 ; USBD_StandardRequest + 320
        0x00000e76:    4897        .H      LDR      r0,[pc,#604] ; [0x10d4] = 0x20000038
        0x00000e78:    7800        .x      LDRB     r0,[r0,#0]
        0x00000e7a:    2881        .(      CMP      r0,#0x81
        0x00000e7c:    d106        ..      BNE      0xe8c ; USBD_StandardRequest + 232
        0x00000e7e:    2000        .       MOVS     r0,#0
        0x00000e80:    4996        .I      LDR      r1,[pc,#600] ; [0x10dc] = 0x40060500
        0x00000e82:    6809        .h      LDR      r1,[r1,#0]
        0x00000e84:    4a96        .J      LDR      r2,[pc,#600] ; [0x10e0] = 0x40060100
        0x00000e86:    1889        ..      ADDS     r1,r1,r2
        0x00000e88:    7008        .p      STRB     r0,[r1,#0]
        0x00000e8a:    e02b        +.      B        0xee4 ; USBD_StandardRequest + 320
        0x00000e8c:    4891        .H      LDR      r0,[pc,#580] ; [0x10d4] = 0x20000038
        0x00000e8e:    7800        .x      LDRB     r0,[r0,#0]
        0x00000e90:    2882        .(      CMP      r0,#0x82
        0x00000e92:    d127        '.      BNE      0xee4 ; USBD_StandardRequest + 320
        0x00000e94:    488f        .H      LDR      r0,[pc,#572] ; [0x10d4] = 0x20000038
        0x00000e96:    7900        .y      LDRB     r0,[r0,#4]
        0x00000e98:    0704        ..      LSLS     r4,r0,#28
        0x00000e9a:    0f24        $.      LSRS     r4,r4,#28
        0x00000e9c:    4622        "F      MOV      r2,r4
        0x00000e9e:    2000        .       MOVS     r0,#0
        0x00000ea0:    e00f        ..      B        0xec2 ; USBD_StandardRequest + 286
        0x00000ea2:    e040        @.      B        0xf26 ; USBD_StandardRequest + 386
        0x00000ea4:    e031        1.      B        0xf0a ; USBD_StandardRequest + 358
        0x00000ea6:    0105        ..      LSLS     r5,r0,#4
        0x00000ea8:    4e8c        .N      LDR      r6,[pc,#560] ; [0x10dc] = 0x40060500
        0x00000eaa:    3608        .6      ADDS     r6,r6,#8
        0x00000eac:    19a9        ..      ADDS     r1,r5,r6
        0x00000eae:    680b        .h      LDR      r3,[r1,#0]
        0x00000eb0:    071d        ..      LSLS     r5,r3,#28
        0x00000eb2:    0f2d        -.      LSRS     r5,r5,#28
        0x00000eb4:    4295        .B      CMP      r5,r2
        0x00000eb6:    d103        ..      BNE      0xec0 ; USBD_StandardRequest + 284
        0x00000eb8:    0105        ..      LSLS     r5,r0,#4
        0x00000eba:    1d36        6.      ADDS     r6,r6,#4
        0x00000ebc:    19a9        ..      ADDS     r1,r5,r6
        0x00000ebe:    e002        ..      B        0xec6 ; USBD_StandardRequest + 290
        0x00000ec0:    1c40        @.      ADDS     r0,r0,#1
        0x00000ec2:    2808        .(      CMP      r0,#8
        0x00000ec4:    dbef        ..      BLT      0xea6 ; USBD_StandardRequest + 258
        0x00000ec6:    bf00        ..      NOP      
        0x00000ec8:    680d        .h      LDR      r5,[r1,#0]
        0x00000eca:    2602        .&      MOVS     r6,#2
        0x00000ecc:    4035        5@      ANDS     r5,r5,r6
        0x00000ece:    2d00        .-      CMP      r5,#0
        0x00000ed0:    d001        ..      BEQ      0xed6 ; USBD_StandardRequest + 306
        0x00000ed2:    2001        .       MOVS     r0,#1
        0x00000ed4:    e000        ..      B        0xed8 ; USBD_StandardRequest + 308
        0x00000ed6:    2000        .       MOVS     r0,#0
        0x00000ed8:    4980        .I      LDR      r1,[pc,#512] ; [0x10dc] = 0x40060500
        0x00000eda:    6809        .h      LDR      r1,[r1,#0]
        0x00000edc:    4a80        .J      LDR      r2,[pc,#512] ; [0x10e0] = 0x40060100
        0x00000ede:    1889        ..      ADDS     r1,r1,r2
        0x00000ee0:    7008        .p      STRB     r0,[r1,#0]
        0x00000ee2:    bf00        ..      NOP      
        0x00000ee4:    2000        .       MOVS     r0,#0
        0x00000ee6:    497d        }I      LDR      r1,[pc,#500] ; [0x10dc] = 0x40060500
        0x00000ee8:    6809        .h      LDR      r1,[r1,#0]
        0x00000eea:    4a7d        }J      LDR      r2,[pc,#500] ; [0x10e0] = 0x40060100
        0x00000eec:    1889        ..      ADDS     r1,r1,r2
        0x00000eee:    7048        Hp      STRB     r0,[r1,#1]
        0x00000ef0:    487a        zH      LDR      r0,[pc,#488] ; [0x10dc] = 0x40060500
        0x00000ef2:    6880        .h      LDR      r0,[r0,#8]
        0x00000ef4:    2180        .!      MOVS     r1,#0x80
        0x00000ef6:    4308        .C      ORRS     r0,r0,r1
        0x00000ef8:    4978        xI      LDR      r1,[pc,#480] ; [0x10dc] = 0x40060500
        0x00000efa:    6088        .`      STR      r0,[r1,#8]
        0x00000efc:    2002        .       MOVS     r0,#2
        0x00000efe:    6048        H`      STR      r0,[r1,#4]
        0x00000f00:    2100        .!      MOVS     r1,#0
        0x00000f02:    4608        .F      MOV      r0,r1
        0x00000f04:    f7fffed4    ....    BL       USBD_PrepareCtrlOut ; 0xcb0
        0x00000f08:    e00c        ..      B        0xf24 ; USBD_StandardRequest + 384
        0x00000f0a:    4874        tH      LDR      r0,[pc,#464] ; [0x10dc] = 0x40060500
        0x00000f0c:    68c0        .h      LDR      r0,[r0,#0xc]
        0x00000f0e:    2102        .!      MOVS     r1,#2
        0x00000f10:    4308        .C      ORRS     r0,r0,r1
        0x00000f12:    4972        rI      LDR      r1,[pc,#456] ; [0x10dc] = 0x40060500
        0x00000f14:    60c8        .`      STR      r0,[r1,#0xc]
        0x00000f16:    4608        .F      MOV      r0,r1
        0x00000f18:    69c0        .i      LDR      r0,[r0,#0x1c]
        0x00000f1a:    2102        .!      MOVS     r1,#2
        0x00000f1c:    4308        .C      ORRS     r0,r0,r1
        0x00000f1e:    496f        oI      LDR      r1,[pc,#444] ; [0x10dc] = 0x40060500
        0x00000f20:    61c8        .a      STR      r0,[r1,#0x1c]
        0x00000f22:    bf00        ..      NOP      
        0x00000f24:    e0d1        ..      B        0x10ca ; USBD_StandardRequest + 806
        0x00000f26:    486b        kH      LDR      r0,[pc,#428] ; [0x10d4] = 0x20000038
        0x00000f28:    7840        @x      LDRB     r0,[r0,#1]
        0x00000f2a:    2805        .(      CMP      r0,#5
        0x00000f2c:    d05a        Z.      BEQ      0xfe4 ; USBD_StandardRequest + 576
        0x00000f2e:    dc04        ..      BGT      0xf3a ; USBD_StandardRequest + 406
        0x00000f30:    2801        .(      CMP      r0,#1
        0x00000f32:    d007        ..      BEQ      0xf44 ; USBD_StandardRequest + 416
        0x00000f34:    2803        .(      CMP      r0,#3
        0x00000f36:    d176        v.      BNE      0x1026 ; USBD_StandardRequest + 642
        0x00000f38:    e076        v.      B        0x1028 ; USBD_StandardRequest + 644
        0x00000f3a:    2809        .(      CMP      r0,#9
        0x00000f3c:    d05f        _.      BEQ      0xffe ; USBD_StandardRequest + 602
        0x00000f3e:    280b        .(      CMP      r0,#0xb
        0x00000f40:    d1f9        ..      BNE      0xf36 ; USBD_StandardRequest + 402
        0x00000f42:    e0a0        ..      B        0x1086 ; USBD_StandardRequest + 738
        0x00000f44:    4863        cH      LDR      r0,[pc,#396] ; [0x10d4] = 0x20000038
        0x00000f46:    7880        .x      LDRB     r0,[r0,#2]
        0x00000f48:    2800        .(      CMP      r0,#0
        0x00000f4a:    d13b        ;.      BNE      0xfc4 ; USBD_StandardRequest + 544
        0x00000f4c:    4a61        aJ      LDR      r2,[pc,#388] ; [0x10d4] = 0x20000038
        0x00000f4e:    7912        .y      LDRB     r2,[r2,#4]
        0x00000f50:    0711        ..      LSLS     r1,r2,#28
        0x00000f52:    0f09        ..      LSRS     r1,r1,#28
        0x00000f54:    bf00        ..      NOP      
        0x00000f56:    e032        2.      B        0xfbe ; USBD_StandardRequest + 538
        0x00000f58:    4a65        eJ      LDR      r2,[pc,#404] ; [0x10f0] = 0x40060000
        0x00000f5a:    2305        .#      MOVS     r3,#5
        0x00000f5c:    021b        ..      LSLS     r3,r3,#8
        0x00000f5e:    18d2        ..      ADDS     r2,r2,r3
        0x00000f60:    0103        ..      LSLS     r3,r0,#4
        0x00000f62:    18d2        ..      ADDS     r2,r2,r3
        0x00000f64:    6892        .h      LDR      r2,[r2,#8]
        0x00000f66:    0712        ..      LSLS     r2,r2,#28
        0x00000f68:    0f12        ..      LSRS     r2,r2,#28
        0x00000f6a:    428a        .B      CMP      r2,r1
        0x00000f6c:    d126        &.      BNE      0xfbc ; USBD_StandardRequest + 536
        0x00000f6e:    2201        ."      MOVS     r2,#1
        0x00000f70:    4082        .@      LSLS     r2,r2,r0
        0x00000f72:    4b60        `K      LDR      r3,[pc,#384] ; [0x10f4] = 0x20000084
        0x00000f74:    681b        .h      LDR      r3,[r3,#0]
        0x00000f76:    401a        .@      ANDS     r2,r2,r3
        0x00000f78:    2a00        .*      CMP      r2,#0
        0x00000f7a:    d11f        ..      BNE      0xfbc ; USBD_StandardRequest + 536
        0x00000f7c:    4a5c        \J      LDR      r2,[pc,#368] ; [0x10f0] = 0x40060000
        0x00000f7e:    2305        .#      MOVS     r3,#5
        0x00000f80:    021b        ..      LSLS     r3,r3,#8
        0x00000f82:    18d2        ..      ADDS     r2,r2,r3
        0x00000f84:    0103        ..      LSLS     r3,r0,#4
        0x00000f86:    18d2        ..      ADDS     r2,r2,r3
        0x00000f88:    68d2        .h      LDR      r2,[r2,#0xc]
        0x00000f8a:    2302        .#      MOVS     r3,#2
        0x00000f8c:    439a        .C      BICS     r2,r2,r3
        0x00000f8e:    4b58        XK      LDR      r3,[pc,#352] ; [0x10f0] = 0x40060000
        0x00000f90:    2405        .$      MOVS     r4,#5
        0x00000f92:    0224        $.      LSLS     r4,r4,#8
        0x00000f94:    191b        ..      ADDS     r3,r3,r4
        0x00000f96:    0104        ..      LSLS     r4,r0,#4
        0x00000f98:    191b        ..      ADDS     r3,r3,r4
        0x00000f9a:    60da        .`      STR      r2,[r3,#0xc]
        0x00000f9c:    4a54        TJ      LDR      r2,[pc,#336] ; [0x10f0] = 0x40060000
        0x00000f9e:    2305        .#      MOVS     r3,#5
        0x00000fa0:    021b        ..      LSLS     r3,r3,#8
        0x00000fa2:    18d2        ..      ADDS     r2,r2,r3
        0x00000fa4:    0103        ..      LSLS     r3,r0,#4
        0x00000fa6:    18d2        ..      ADDS     r2,r2,r3
        0x00000fa8:    6892        .h      LDR      r2,[r2,#8]
        0x00000faa:    2380        .#      MOVS     r3,#0x80
        0x00000fac:    439a        .C      BICS     r2,r2,r3
        0x00000fae:    4b50        PK      LDR      r3,[pc,#320] ; [0x10f0] = 0x40060000
        0x00000fb0:    2405        .$      MOVS     r4,#5
        0x00000fb2:    0224        $.      LSLS     r4,r4,#8
        0x00000fb4:    191b        ..      ADDS     r3,r3,r4
        0x00000fb6:    0104        ..      LSLS     r4,r0,#4
        0x00000fb8:    191b        ..      ADDS     r3,r3,r4
        0x00000fba:    609a        .`      STR      r2,[r3,#8]
        0x00000fbc:    1c40        @.      ADDS     r0,r0,#1
        0x00000fbe:    2808        .(      CMP      r0,#8
        0x00000fc0:    dbca        ..      BLT      0xf58 ; USBD_StandardRequest + 436
        0x00000fc2:    e006        ..      B        0xfd2 ; USBD_StandardRequest + 558
        0x00000fc4:    4843        CH      LDR      r0,[pc,#268] ; [0x10d4] = 0x20000038
        0x00000fc6:    7880        .x      LDRB     r0,[r0,#2]
        0x00000fc8:    2801        .(      CMP      r0,#1
        0x00000fca:    d102        ..      BNE      0xfd2 ; USBD_StandardRequest + 558
        0x00000fcc:    2000        .       MOVS     r0,#0
        0x00000fce:    4947        GI      LDR      r1,[pc,#284] ; [0x10ec] = 0x20000040
        0x00000fd0:    7008        .p      STRB     r0,[r1,#0]
        0x00000fd2:    4842        BH      LDR      r0,[pc,#264] ; [0x10dc] = 0x40060500
        0x00000fd4:    6880        .h      LDR      r0,[r0,#8]
        0x00000fd6:    2180        .!      MOVS     r1,#0x80
        0x00000fd8:    4308        .C      ORRS     r0,r0,r1
        0x00000fda:    4940        @I      LDR      r1,[pc,#256] ; [0x10dc] = 0x40060500
        0x00000fdc:    6088        .`      STR      r0,[r1,#8]
        0x00000fde:    2000        .       MOVS     r0,#0
        0x00000fe0:    6048        H`      STR      r0,[r1,#4]
        0x00000fe2:    e071        q.      B        0x10c8 ; USBD_StandardRequest + 804
        0x00000fe4:    483b        ;H      LDR      r0,[pc,#236] ; [0x10d4] = 0x20000038
        0x00000fe6:    7880        .x      LDRB     r0,[r0,#2]
        0x00000fe8:    4943        CI      LDR      r1,[pc,#268] ; [0x10f8] = 0x20000058
        0x00000fea:    6008        .`      STR      r0,[r1,#0]
        0x00000fec:    483b        ;H      LDR      r0,[pc,#236] ; [0x10dc] = 0x40060500
        0x00000fee:    6880        .h      LDR      r0,[r0,#8]
        0x00000ff0:    2180        .!      MOVS     r1,#0x80
        0x00000ff2:    4308        .C      ORRS     r0,r0,r1
        0x00000ff4:    4939        9I      LDR      r1,[pc,#228] ; [0x10dc] = 0x40060500
        0x00000ff6:    6088        .`      STR      r0,[r1,#8]
        0x00000ff8:    2000        .       MOVS     r0,#0
        0x00000ffa:    6048        H`      STR      r0,[r1,#4]
        0x00000ffc:    e064        d.      B        0x10c8 ; USBD_StandardRequest + 804
        0x00000ffe:    4835        5H      LDR      r0,[pc,#212] ; [0x10d4] = 0x20000038
        0x00001000:    7880        .x      LDRB     r0,[r0,#2]
        0x00001002:    4935        5I      LDR      r1,[pc,#212] ; [0x10d8] = 0x2000005c
        0x00001004:    6008        .`      STR      r0,[r1,#0]
        0x00001006:    483d        =H      LDR      r0,[pc,#244] ; [0x10fc] = 0x20000080
        0x00001008:    6800        .h      LDR      r0,[r0,#0]
        0x0000100a:    2800        .(      CMP      r0,#0
        0x0000100c:    d002        ..      BEQ      0x1014 ; USBD_StandardRequest + 624
        0x0000100e:    483b        ;H      LDR      r0,[pc,#236] ; [0x10fc] = 0x20000080
        0x00001010:    6800        .h      LDR      r0,[r0,#0]
        0x00001012:    4780        .G      BLX      r0
        0x00001014:    4831        1H      LDR      r0,[pc,#196] ; [0x10dc] = 0x40060500
        0x00001016:    6880        .h      LDR      r0,[r0,#8]
        0x00001018:    2180        .!      MOVS     r1,#0x80
        0x0000101a:    4308        .C      ORRS     r0,r0,r1
        0x0000101c:    492f        /I      LDR      r1,[pc,#188] ; [0x10dc] = 0x40060500
        0x0000101e:    6088        .`      STR      r0,[r1,#8]
        0x00001020:    2000        .       MOVS     r0,#0
        0x00001022:    6048        H`      STR      r0,[r1,#4]
        0x00001024:    e050        P.      B        0x10c8 ; USBD_StandardRequest + 804
        0x00001026:    e042        B.      B        0x10ae ; USBD_StandardRequest + 778
        0x00001028:    482a        *H      LDR      r0,[pc,#168] ; [0x10d4] = 0x20000038
        0x0000102a:    7880        .x      LDRB     r0,[r0,#2]
        0x0000102c:    2800        .(      CMP      r0,#0
        0x0000102e:    d11b        ..      BNE      0x1068 ; USBD_StandardRequest + 708
        0x00001030:    4828        (H      LDR      r0,[pc,#160] ; [0x10d4] = 0x20000038
        0x00001032:    7900        .y      LDRB     r0,[r0,#4]
        0x00001034:    0703        ..      LSLS     r3,r0,#28
        0x00001036:    0f1b        ..      LSRS     r3,r3,#28
        0x00001038:    2100        .!      MOVS     r1,#0
        0x0000103a:    e011        ..      B        0x1060 ; USBD_StandardRequest + 700
        0x0000103c:    010c        ..      LSLS     r4,r1,#4
        0x0000103e:    4d27        'M      LDR      r5,[pc,#156] ; [0x10dc] = 0x40060500
        0x00001040:    3508        .5      ADDS     r5,r5,#8
        0x00001042:    1960        `.      ADDS     r0,r4,r5
        0x00001044:    6802        .h      LDR      r2,[r0,#0]
        0x00001046:    0714        ..      LSLS     r4,r2,#28
        0x00001048:    0f24        $.      LSRS     r4,r4,#28
        0x0000104a:    429c        .B      CMP      r4,r3
        0x0000104c:    d107        ..      BNE      0x105e ; USBD_StandardRequest + 698
        0x0000104e:    010c        ..      LSLS     r4,r1,#4
        0x00001050:    1d2d        -.      ADDS     r5,r5,#4
        0x00001052:    1960        `.      ADDS     r0,r4,r5
        0x00001054:    6802        .h      LDR      r2,[r0,#0]
        0x00001056:    2402        .$      MOVS     r4,#2
        0x00001058:    4314        .C      ORRS     r4,r4,r2
        0x0000105a:    6004        .`      STR      r4,[r0,#0]
        0x0000105c:    e002        ..      B        0x1064 ; USBD_StandardRequest + 704
        0x0000105e:    1c49        I.      ADDS     r1,r1,#1
        0x00001060:    2908        .)      CMP      r1,#8
        0x00001062:    dbeb        ..      BLT      0x103c ; USBD_StandardRequest + 664
        0x00001064:    bf00        ..      NOP      
        0x00001066:    e005        ..      B        0x1074 ; USBD_StandardRequest + 720
        0x00001068:    481a        .H      LDR      r0,[pc,#104] ; [0x10d4] = 0x20000038
        0x0000106a:    7880        .x      LDRB     r0,[r0,#2]
        0x0000106c:    2801        .(      CMP      r0,#1
        0x0000106e:    d101        ..      BNE      0x1074 ; USBD_StandardRequest + 720
        0x00001070:    491e        .I      LDR      r1,[pc,#120] ; [0x10ec] = 0x20000040
        0x00001072:    7008        .p      STRB     r0,[r1,#0]
        0x00001074:    4819        .H      LDR      r0,[pc,#100] ; [0x10dc] = 0x40060500
        0x00001076:    6880        .h      LDR      r0,[r0,#8]
        0x00001078:    2180        .!      MOVS     r1,#0x80
        0x0000107a:    4308        .C      ORRS     r0,r0,r1
        0x0000107c:    4917        .I      LDR      r1,[pc,#92] ; [0x10dc] = 0x40060500
        0x0000107e:    6088        .`      STR      r0,[r1,#8]
        0x00001080:    2000        .       MOVS     r0,#0
        0x00001082:    6048        H`      STR      r0,[r1,#4]
        0x00001084:    e020         .      B        0x10c8 ; USBD_StandardRequest + 804
        0x00001086:    4813        .H      LDR      r0,[pc,#76] ; [0x10d4] = 0x20000038
        0x00001088:    7880        .x      LDRB     r0,[r0,#2]
        0x0000108a:    4916        .I      LDR      r1,[pc,#88] ; [0x10e4] = 0x20000064
        0x0000108c:    6008        .`      STR      r0,[r1,#0]
        0x0000108e:    481c        .H      LDR      r0,[pc,#112] ; [0x1100] = 0x2000007c
        0x00001090:    6800        .h      LDR      r0,[r0,#0]
        0x00001092:    2800        .(      CMP      r0,#0
        0x00001094:    d002        ..      BEQ      0x109c ; USBD_StandardRequest + 760
        0x00001096:    481a        .H      LDR      r0,[pc,#104] ; [0x1100] = 0x2000007c
        0x00001098:    6800        .h      LDR      r0,[r0,#0]
        0x0000109a:    4780        .G      BLX      r0
        0x0000109c:    480f        .H      LDR      r0,[pc,#60] ; [0x10dc] = 0x40060500
        0x0000109e:    6880        .h      LDR      r0,[r0,#8]
        0x000010a0:    2180        .!      MOVS     r1,#0x80
        0x000010a2:    4308        .C      ORRS     r0,r0,r1
        0x000010a4:    490d        .I      LDR      r1,[pc,#52] ; [0x10dc] = 0x40060500
        0x000010a6:    6088        .`      STR      r0,[r1,#8]
        0x000010a8:    2000        .       MOVS     r0,#0
        0x000010aa:    6048        H`      STR      r0,[r1,#4]
        0x000010ac:    e00c        ..      B        0x10c8 ; USBD_StandardRequest + 804
        0x000010ae:    480b        .H      LDR      r0,[pc,#44] ; [0x10dc] = 0x40060500
        0x000010b0:    68c0        .h      LDR      r0,[r0,#0xc]
        0x000010b2:    2102        .!      MOVS     r1,#2
        0x000010b4:    4308        .C      ORRS     r0,r0,r1
        0x000010b6:    4909        .I      LDR      r1,[pc,#36] ; [0x10dc] = 0x40060500
        0x000010b8:    60c8        .`      STR      r0,[r1,#0xc]
        0x000010ba:    4608        .F      MOV      r0,r1
        0x000010bc:    69c0        .i      LDR      r0,[r0,#0x1c]
        0x000010be:    2102        .!      MOVS     r1,#2
        0x000010c0:    4308        .C      ORRS     r0,r0,r1
        0x000010c2:    4906        .I      LDR      r1,[pc,#24] ; [0x10dc] = 0x40060500
        0x000010c4:    61c8        .a      STR      r0,[r1,#0x1c]
        0x000010c6:    bf00        ..      NOP      
        0x000010c8:    bf00        ..      NOP      
        0x000010ca:    bd70        p.      POP      {r4-r6,pc}
    $d
        0x000010cc:    20000044    D..     DCD    536870980
        0x000010d0:    20000048    H..     DCD    536870984
        0x000010d4:    20000038    8..     DCD    536870968
        0x000010d8:    2000005c    \..     DCD    536871004
        0x000010dc:    40060500    ...@    DCD    1074136320
        0x000010e0:    40060100    ...@    DCD    1074135296
        0x000010e4:    20000064    d..     DCD    536871012
        0x000010e8:    20000070    p..     DCD    536871024
        0x000010ec:    20000040    @..     DCD    536870976
        0x000010f0:    40060000    ...@    DCD    1074135040
        0x000010f4:    20000084    ...     DCD    536871044
        0x000010f8:    20000058    X..     DCD    536871000
        0x000010fc:    20000080    ...     DCD    536871040
        0x00001100:    2000007c    |..     DCD    536871036
    $t
    i.USBD_Start
    USBD_Start
        0x00001104:    4814        .H      LDR      r0,[pc,#80] ; [0x1158] = 0x186a0
        0x00001106:    4915        .I      LDR      r1,[pc,#84] ; [0x115c] = 0x20000004
        0x00001108:    6809        .h      LDR      r1,[r1,#0]
        0x0000110a:    4341        AC      MULS     r1,r0,r1
        0x0000110c:    4a14        .J      LDR      r2,[pc,#80] ; [0x1160] = 0xe000e000
        0x0000110e:    6151        Qa      STR      r1,[r2,#0x14]
        0x00001110:    2100        .!      MOVS     r1,#0
        0x00001112:    6191        .a      STR      r1,[r2,#0x18]
        0x00001114:    2105        .!      MOVS     r1,#5
        0x00001116:    6111        .a      STR      r1,[r2,#0x10]
        0x00001118:    bf00        ..      NOP      
        0x0000111a:    bf00        ..      NOP      
        0x0000111c:    4910        .I      LDR      r1,[pc,#64] ; [0x1160] = 0xe000e000
        0x0000111e:    6909        .i      LDR      r1,[r1,#0x10]
        0x00001120:    2201        ."      MOVS     r2,#1
        0x00001122:    0412        ..      LSLS     r2,r2,#16
        0x00001124:    4011        .@      ANDS     r1,r1,r2
        0x00001126:    2900        .)      CMP      r1,#0
        0x00001128:    d0f8        ..      BEQ      0x111c ; USBD_Start + 24
        0x0000112a:    2100        .!      MOVS     r1,#0
        0x0000112c:    4a0c        .J      LDR      r2,[pc,#48] ; [0x1160] = 0xe000e000
        0x0000112e:    6111        .a      STR      r1,[r2,#0x10]
        0x00001130:    bf00        ..      NOP      
        0x00001132:    480c        .H      LDR      r0,[pc,#48] ; [0x1164] = 0x40060080
        0x00001134:    6900        .i      LDR      r0,[r0,#0x10]
        0x00001136:    0840        @.      LSRS     r0,r0,#1
        0x00001138:    0040        @.      LSLS     r0,r0,#1
        0x0000113a:    490a        .I      LDR      r1,[pc,#40] ; [0x1164] = 0x40060080
        0x0000113c:    6108        .a      STR      r0,[r1,#0x10]
        0x0000113e:    200f        .       MOVS     r0,#0xf
        0x00001140:    4908        .I      LDR      r1,[pc,#32] ; [0x1164] = 0x40060080
        0x00001142:    3980        .9      SUBS     r1,r1,#0x80
        0x00001144:    6048        H`      STR      r0,[r1,#4]
        0x00001146:    4608        .F      MOV      r0,r1
        0x00001148:    6800        .h      LDR      r0,[r0,#0]
        0x0000114a:    210f        .!      MOVS     r1,#0xf
        0x0000114c:    4308        .C      ORRS     r0,r0,r1
        0x0000114e:    4905        .I      LDR      r1,[pc,#20] ; [0x1164] = 0x40060080
        0x00001150:    3980        .9      SUBS     r1,r1,#0x80
        0x00001152:    6008        .`      STR      r0,[r1,#0]
        0x00001154:    4770        pG      BX       lr
    $d
        0x00001156:    0000        ..      DCW    0
        0x00001158:    000186a0    ....    DCD    100000
        0x0000115c:    20000004    ...     DCD    536870916
        0x00001160:    e000e000    ....    DCD    3758153728
        0x00001164:    40060080    ...@    DCD    1074135168
    $t
    i.USBD_SwReset
    USBD_SwReset
        0x00001168:    2100        .!      MOVS     r1,#0
        0x0000116a:    4a14        .J      LDR      r2,[pc,#80] ; [0x11bc] = 0x20000044
        0x0000116c:    6011        .`      STR      r1,[r2,#0]
        0x0000116e:    4a14        .J      LDR      r2,[pc,#80] ; [0x11c0] = 0x20000048
        0x00001170:    6011        .`      STR      r1,[r2,#0]
        0x00001172:    4a14        .J      LDR      r2,[pc,#80] ; [0x11c4] = 0x2000004c
        0x00001174:    6011        .`      STR      r1,[r2,#0]
        0x00001176:    4a14        .J      LDR      r2,[pc,#80] ; [0x11c8] = 0x20000050
        0x00001178:    6011        .`      STR      r1,[r2,#0]
        0x0000117a:    4a14        .J      LDR      r2,[pc,#80] ; [0x11cc] = 0x20000054
        0x0000117c:    6011        .`      STR      r1,[r2,#0]
        0x0000117e:    4a14        .J      LDR      r2,[pc,#80] ; [0x11d0] = 0x20000084
        0x00001180:    6011        .`      STR      r1,[r2,#0]
        0x00001182:    4914        .I      LDR      r1,[pc,#80] ; [0x11d4] = 0x20000038
        0x00001184:    2200        ."      MOVS     r2,#0
        0x00001186:    600a        .`      STR      r2,[r1,#0]
        0x00001188:    604a        J`      STR      r2,[r1,#4]
        0x0000118a:    2000        .       MOVS     r0,#0
        0x0000118c:    e010        ..      B        0x11b0 ; USBD_SwReset + 72
        0x0000118e:    4912        .I      LDR      r1,[pc,#72] ; [0x11d8] = 0x40060000
        0x00001190:    2205        ."      MOVS     r2,#5
        0x00001192:    0212        ..      LSLS     r2,r2,#8
        0x00001194:    1889        ..      ADDS     r1,r1,r2
        0x00001196:    0102        ..      LSLS     r2,r0,#4
        0x00001198:    1889        ..      ADDS     r1,r1,r2
        0x0000119a:    6889        .h      LDR      r1,[r1,#8]
        0x0000119c:    2280        ."      MOVS     r2,#0x80
        0x0000119e:    4391        .C      BICS     r1,r1,r2
        0x000011a0:    4a0d        .J      LDR      r2,[pc,#52] ; [0x11d8] = 0x40060000
        0x000011a2:    2305        .#      MOVS     r3,#5
        0x000011a4:    021b        ..      LSLS     r3,r3,#8
        0x000011a6:    18d2        ..      ADDS     r2,r2,r3
        0x000011a8:    0103        ..      LSLS     r3,r0,#4
        0x000011aa:    18d2        ..      ADDS     r2,r2,r3
        0x000011ac:    6091        .`      STR      r1,[r2,#8]
        0x000011ae:    1c40        @.      ADDS     r0,r0,#1
        0x000011b0:    2808        .(      CMP      r0,#8
        0x000011b2:    dbec        ..      BLT      0x118e ; USBD_SwReset + 38
        0x000011b4:    2100        .!      MOVS     r1,#0
        0x000011b6:    4a08        .J      LDR      r2,[pc,#32] ; [0x11d8] = 0x40060000
        0x000011b8:    6091        .`      STR      r1,[r2,#8]
        0x000011ba:    4770        pG      BX       lr
    $d
        0x000011bc:    20000044    D..     DCD    536870980
        0x000011c0:    20000048    H..     DCD    536870984
        0x000011c4:    2000004c    L..     DCD    536870988
        0x000011c8:    20000050    P..     DCD    536870992
        0x000011cc:    20000054    T..     DCD    536870996
        0x000011d0:    20000084    ...     DCD    536871044
        0x000011d4:    20000038    8..     DCD    536870968
        0x000011d8:    40060000    ...@    DCD    1074135040
    $t
    i.__0printf$5
    __0printf$5
    __1printf$5
    __2printf
        0x000011dc:    b40f        ..      PUSH     {r0-r3}
        0x000011de:    b510        ..      PUSH     {r4,lr}
        0x000011e0:    a903        ..      ADD      r1,sp,#0xc
        0x000011e2:    4b04        .K      LDR      r3,[pc,#16] ; [0x11f4] = 0x14f9
        0x000011e4:    4a04        .J      LDR      r2,[pc,#16] ; [0x11f8] = 0x20000030
        0x000011e6:    9802        ..      LDR      r0,[sp,#8]
        0x000011e8:    f000f818    ....    BL       _printf_core ; 0x121c
        0x000011ec:    bc10        ..      POP      {r4}
        0x000011ee:    bc08        ..      POP      {r3}
        0x000011f0:    b004        ..      ADD      sp,sp,#0x10
        0x000011f2:    4718        .G      BX       r3
    $d
        0x000011f4:    000014f9    ....    DCD    5369
        0x000011f8:    20000030    0..     DCD    536870960
    $t
    i.__scatterload_copy
    __scatterload_copy
        0x000011fc:    e002        ..      B        0x1204 ; __scatterload_copy + 8
        0x000011fe:    c808        ..      LDM      r0!,{r3}
        0x00001200:    1f12        ..      SUBS     r2,r2,#4
        0x00001202:    c108        ..      STM      r1!,{r3}
        0x00001204:    2a00        .*      CMP      r2,#0
        0x00001206:    d1fa        ..      BNE      0x11fe ; __scatterload_copy + 2
        0x00001208:    4770        pG      BX       lr
    i.__scatterload_null
    __scatterload_null
        0x0000120a:    4770        pG      BX       lr
    i.__scatterload_zeroinit
    __scatterload_zeroinit
        0x0000120c:    2000        .       MOVS     r0,#0
        0x0000120e:    e001        ..      B        0x1214 ; __scatterload_zeroinit + 8
        0x00001210:    c101        ..      STM      r1!,{r0}
        0x00001212:    1f12        ..      SUBS     r2,r2,#4
        0x00001214:    2a00        .*      CMP      r2,#0
        0x00001216:    d1fb        ..      BNE      0x1210 ; __scatterload_zeroinit + 4
        0x00001218:    4770        pG      BX       lr
        0x0000121a:    0000        ..      MOVS     r0,r0
    i._printf_core
    _printf_core
        0x0000121c:    b5ff        ..      PUSH     {r0-r7,lr}
        0x0000121e:    b08f        ..      SUB      sp,sp,#0x3c
        0x00001220:    460f        .F      MOV      r7,r1
        0x00001222:    4604        .F      MOV      r4,r0
        0x00001224:    2600        .&      MOVS     r6,#0
        0x00001226:    e006        ..      B        0x1236 ; _printf_core + 26
        0x00001228:    2825        %(      CMP      r0,#0x25
        0x0000122a:    d00a        ..      BEQ      0x1242 ; _printf_core + 38
        0x0000122c:    9a12        ..      LDR      r2,[sp,#0x48]
        0x0000122e:    9911        ..      LDR      r1,[sp,#0x44]
        0x00001230:    4790        .G      BLX      r2
        0x00001232:    1c64        d.      ADDS     r4,r4,#1
        0x00001234:    1c76        v.      ADDS     r6,r6,#1
        0x00001236:    7820         x      LDRB     r0,[r4,#0]
        0x00001238:    2800        .(      CMP      r0,#0
        0x0000123a:    d1f5        ..      BNE      0x1228 ; _printf_core + 12
        0x0000123c:    4630        0F      MOV      r0,r6
        0x0000123e:    b013        ..      ADD      sp,sp,#0x4c
        0x00001240:    bdf0        ..      POP      {r4-r7,pc}
        0x00001242:    2500        .%      MOVS     r5,#0
        0x00001244:    2101        .!      MOVS     r1,#1
        0x00001246:    4aa1        .J      LDR      r2,[pc,#644] ; [0x14cc] = 0x12809
        0x00001248:    9500        ..      STR      r5,[sp,#0]
        0x0000124a:    e000        ..      B        0x124e ; _printf_core + 50
        0x0000124c:    4305        .C      ORRS     r5,r5,r0
        0x0000124e:    1c64        d.      ADDS     r4,r4,#1
        0x00001250:    7823        #x      LDRB     r3,[r4,#0]
        0x00001252:    4608        .F      MOV      r0,r1
        0x00001254:    3b20         ;      SUBS     r3,r3,#0x20
        0x00001256:    4098        .@      LSLS     r0,r0,r3
        0x00001258:    4210        .B      TST      r0,r2
        0x0000125a:    d1f7        ..      BNE      0x124c ; _printf_core + 48
        0x0000125c:    7820         x      LDRB     r0,[r4,#0]
        0x0000125e:    282e        .(      CMP      r0,#0x2e
        0x00001260:    d115        ..      BNE      0x128e ; _printf_core + 114
        0x00001262:    2004        .       MOVS     r0,#4
        0x00001264:    4305        .C      ORRS     r5,r5,r0
        0x00001266:    7860        `x      LDRB     r0,[r4,#1]
        0x00001268:    1c64        d.      ADDS     r4,r4,#1
        0x0000126a:    282a        *(      CMP      r0,#0x2a
        0x0000126c:    d10a        ..      BNE      0x1284 ; _printf_core + 104
        0x0000126e:    cf01        ..      LDM      r7!,{r0}
        0x00001270:    1c64        d.      ADDS     r4,r4,#1
        0x00001272:    9000        ..      STR      r0,[sp,#0]
        0x00001274:    e00b        ..      B        0x128e ; _printf_core + 114
        0x00001276:    9900        ..      LDR      r1,[sp,#0]
        0x00001278:    220a        ."      MOVS     r2,#0xa
        0x0000127a:    4351        QC      MULS     r1,r2,r1
        0x0000127c:    3930        09      SUBS     r1,r1,#0x30
        0x0000127e:    1840        @.      ADDS     r0,r0,r1
        0x00001280:    1c64        d.      ADDS     r4,r4,#1
        0x00001282:    9000        ..      STR      r0,[sp,#0]
        0x00001284:    7820         x      LDRB     r0,[r4,#0]
        0x00001286:    4601        .F      MOV      r1,r0
        0x00001288:    3930        09      SUBS     r1,r1,#0x30
        0x0000128a:    2909        .)      CMP      r1,#9
        0x0000128c:    d9f3        ..      BLS      0x1276 ; _printf_core + 90
        0x0000128e:    7820         x      LDRB     r0,[r4,#0]
        0x00001290:    286c        l(      CMP      r0,#0x6c
        0x00001292:    d00e        ..      BEQ      0x12b2 ; _printf_core + 150
        0x00001294:    dc04        ..      BGT      0x12a0 ; _printf_core + 132
        0x00001296:    284c        L(      CMP      r0,#0x4c
        0x00001298:    d013        ..      BEQ      0x12c2 ; _printf_core + 166
        0x0000129a:    286a        j(      CMP      r0,#0x6a
        0x0000129c:    d112        ..      BNE      0x12c4 ; _printf_core + 168
        0x0000129e:    e004        ..      B        0x12aa ; _printf_core + 142
        0x000012a0:    2874        t(      CMP      r0,#0x74
        0x000012a2:    d00e        ..      BEQ      0x12c2 ; _printf_core + 166
        0x000012a4:    287a        z(      CMP      r0,#0x7a
        0x000012a6:    d10d        ..      BNE      0x12c4 ; _printf_core + 168
        0x000012a8:    e00b        ..      B        0x12c2 ; _printf_core + 166
        0x000012aa:    2001        .       MOVS     r0,#1
        0x000012ac:    0540        @.      LSLS     r0,r0,#21
        0x000012ae:    4305        .C      ORRS     r5,r5,r0
        0x000012b0:    e007        ..      B        0x12c2 ; _printf_core + 166
        0x000012b2:    2101        .!      MOVS     r1,#1
        0x000012b4:    0509        ..      LSLS     r1,r1,#20
        0x000012b6:    7862        bx      LDRB     r2,[r4,#1]
        0x000012b8:    430d        .C      ORRS     r5,r5,r1
        0x000012ba:    4282        .B      CMP      r2,r0
        0x000012bc:    d101        ..      BNE      0x12c2 ; _printf_core + 166
        0x000012be:    186d        m.      ADDS     r5,r5,r1
        0x000012c0:    1c64        d.      ADDS     r4,r4,#1
        0x000012c2:    1c64        d.      ADDS     r4,r4,#1
        0x000012c4:    7820         x      LDRB     r0,[r4,#0]
        0x000012c6:    4686        .F      MOV      lr,r0
        0x000012c8:    2869        i(      CMP      r0,#0x69
        0x000012ca:    d04a        J.      BEQ      0x1362 ; _printf_core + 326
        0x000012cc:    dc08        ..      BGT      0x12e0 ; _printf_core + 196
        0x000012ce:    2800        .(      CMP      r0,#0
        0x000012d0:    d0b4        ..      BEQ      0x123c ; _printf_core + 32
        0x000012d2:    2858        X(      CMP      r0,#0x58
        0x000012d4:    d06d        m.      BEQ      0x13b2 ; _printf_core + 406
        0x000012d6:    2863        c(      CMP      r0,#0x63
        0x000012d8:    d010        ..      BEQ      0x12fc ; _printf_core + 224
        0x000012da:    2864        d(      CMP      r0,#0x64
        0x000012dc:    d108        ..      BNE      0x12f0 ; _printf_core + 212
        0x000012de:    e040        @.      B        0x1362 ; _printf_core + 326
        0x000012e0:    2870        p(      CMP      r0,#0x70
        0x000012e2:    d06b        k.      BEQ      0x13bc ; _printf_core + 416
        0x000012e4:    2873        s(      CMP      r0,#0x73
        0x000012e6:    d012        ..      BEQ      0x130e ; _printf_core + 242
        0x000012e8:    2875        u(      CMP      r0,#0x75
        0x000012ea:    d060        `.      BEQ      0x13ae ; _printf_core + 402
        0x000012ec:    2878        x(      CMP      r0,#0x78
        0x000012ee:    d060        `.      BEQ      0x13b2 ; _printf_core + 406
        0x000012f0:    9a12        ..      LDR      r2,[sp,#0x48]
        0x000012f2:    4670        pF      MOV      r0,lr
        0x000012f4:    9911        ..      LDR      r1,[sp,#0x44]
        0x000012f6:    4790        .G      BLX      r2
        0x000012f8:    1c76        v.      ADDS     r6,r6,#1
        0x000012fa:    e0e5        ..      B        0x14c8 ; _printf_core + 684
        0x000012fc:    7838        8x      LDRB     r0,[r7,#0]
        0x000012fe:    4669        iF      MOV      r1,sp
        0x00001300:    7208        .r      STRB     r0,[r1,#8]
        0x00001302:    2000        .       MOVS     r0,#0
        0x00001304:    7248        Hr      STRB     r0,[r1,#9]
        0x00001306:    a802        ..      ADD      r0,sp,#8
        0x00001308:    9001        ..      STR      r0,[sp,#4]
        0x0000130a:    2001        .       MOVS     r0,#1
        0x0000130c:    e003        ..      B        0x1316 ; _printf_core + 250
        0x0000130e:    6838        8h      LDR      r0,[r7,#0]
        0x00001310:    9001        ..      STR      r0,[sp,#4]
        0x00001312:    2000        .       MOVS     r0,#0
        0x00001314:    43c0        .C      MVNS     r0,r0
        0x00001316:    1d3f        ?.      ADDS     r7,r7,#4
        0x00001318:    0769        i.      LSLS     r1,r5,#29
        0x0000131a:    d50c        ..      BPL      0x1336 ; _printf_core + 282
        0x0000131c:    2500        .%      MOVS     r5,#0
        0x0000131e:    e000        ..      B        0x1322 ; _printf_core + 262
        0x00001320:    1c6d        m.      ADDS     r5,r5,#1
        0x00001322:    9900        ..      LDR      r1,[sp,#0]
        0x00001324:    428d        .B      CMP      r5,r1
        0x00001326:    da0f        ..      BGE      0x1348 ; _printf_core + 300
        0x00001328:    4285        .B      CMP      r5,r0
        0x0000132a:    dbf9        ..      BLT      0x1320 ; _printf_core + 260
        0x0000132c:    9901        ..      LDR      r1,[sp,#4]
        0x0000132e:    5d49        I]      LDRB     r1,[r1,r5]
        0x00001330:    2900        .)      CMP      r1,#0
        0x00001332:    d1f5        ..      BNE      0x1320 ; _printf_core + 260
        0x00001334:    e008        ..      B        0x1348 ; _printf_core + 300
        0x00001336:    2500        .%      MOVS     r5,#0
        0x00001338:    e000        ..      B        0x133c ; _printf_core + 288
        0x0000133a:    1c6d        m.      ADDS     r5,r5,#1
        0x0000133c:    4285        .B      CMP      r5,r0
        0x0000133e:    dbfc        ..      BLT      0x133a ; _printf_core + 286
        0x00001340:    9901        ..      LDR      r1,[sp,#4]
        0x00001342:    5d49        I]      LDRB     r1,[r1,r5]
        0x00001344:    2900        .)      CMP      r1,#0
        0x00001346:    d1f8        ..      BNE      0x133a ; _printf_core + 286
        0x00001348:    1976        v.      ADDS     r6,r6,r5
        0x0000134a:    e007        ..      B        0x135c ; _printf_core + 320
        0x0000134c:    9801        ..      LDR      r0,[sp,#4]
        0x0000134e:    9901        ..      LDR      r1,[sp,#4]
        0x00001350:    7800        .x      LDRB     r0,[r0,#0]
        0x00001352:    1c49        I.      ADDS     r1,r1,#1
        0x00001354:    9101        ..      STR      r1,[sp,#4]
        0x00001356:    9a12        ..      LDR      r2,[sp,#0x48]
        0x00001358:    9911        ..      LDR      r1,[sp,#0x44]
        0x0000135a:    4790        .G      BLX      r2
        0x0000135c:    1e6d        m.      SUBS     r5,r5,#1
        0x0000135e:    d2f5        ..      BCS      0x134c ; _printf_core + 304
        0x00001360:    e0b2        ..      B        0x14c8 ; _printf_core + 684
        0x00001362:    200a        .       MOVS     r0,#0xa
        0x00001364:    9002        ..      STR      r0,[sp,#8]
        0x00001366:    2100        .!      MOVS     r1,#0
        0x00001368:    0268        h.      LSLS     r0,r5,#9
        0x0000136a:    0f40        @.      LSRS     r0,r0,#29
        0x0000136c:    9103        ..      STR      r1,[sp,#0xc]
        0x0000136e:    2802        .(      CMP      r0,#2
        0x00001370:    d00c        ..      BEQ      0x138c ; _printf_core + 368
        0x00001372:    cf01        ..      LDM      r7!,{r0}
        0x00001374:    17c1        ..      ASRS     r1,r0,#31
        0x00001376:    4684        .F      MOV      r12,r0
        0x00001378:    2900        .)      CMP      r1,#0
        0x0000137a:    da0d        ..      BGE      0x1398 ; _printf_core + 380
        0x0000137c:    4662        bF      MOV      r2,r12
        0x0000137e:    4608        .F      MOV      r0,r1
        0x00001380:    4252        RB      RSBS     r2,r2,#0
        0x00001382:    2100        .!      MOVS     r1,#0
        0x00001384:    4181        .A      SBCS     r1,r1,r0
        0x00001386:    4694        .F      MOV      r12,r2
        0x00001388:    202d        -       MOVS     r0,#0x2d
        0x0000138a:    e008        ..      B        0x139e ; _printf_core + 386
        0x0000138c:    1dff        ..      ADDS     r7,r7,#7
        0x0000138e:    08ff        ..      LSRS     r7,r7,#3
        0x00001390:    00ff        ..      LSLS     r7,r7,#3
        0x00001392:    cf03        ..      LDM      r7!,{r0,r1}
        0x00001394:    4684        .F      MOV      r12,r0
        0x00001396:    e7ef        ..      B        0x1378 ; _printf_core + 348
        0x00001398:    0528        (.      LSLS     r0,r5,#20
        0x0000139a:    d504        ..      BPL      0x13a6 ; _printf_core + 394
        0x0000139c:    202b        +       MOVS     r0,#0x2b
        0x0000139e:    466a        jF      MOV      r2,sp
        0x000013a0:    7410        .t      STRB     r0,[r2,#0x10]
        0x000013a2:    2001        .       MOVS     r0,#1
        0x000013a4:    e03c        <.      B        0x1420 ; _printf_core + 516
        0x000013a6:    07e8        ..      LSLS     r0,r5,#31
        0x000013a8:    d03a        :.      BEQ      0x1420 ; _printf_core + 516
        0x000013aa:    2020                MOVS     r0,#0x20
        0x000013ac:    e7f7        ..      B        0x139e ; _printf_core + 386
        0x000013ae:    200a        .       MOVS     r0,#0xa
        0x000013b0:    e000        ..      B        0x13b4 ; _printf_core + 408
        0x000013b2:    2010        .       MOVS     r0,#0x10
        0x000013b4:    2100        .!      MOVS     r1,#0
        0x000013b6:    9103        ..      STR      r1,[sp,#0xc]
        0x000013b8:    9002        ..      STR      r0,[sp,#8]
        0x000013ba:    e007        ..      B        0x13cc ; _printf_core + 432
        0x000013bc:    2010        .       MOVS     r0,#0x10
        0x000013be:    9002        ..      STR      r0,[sp,#8]
        0x000013c0:    2100        .!      MOVS     r1,#0
        0x000013c2:    2004        .       MOVS     r0,#4
        0x000013c4:    4305        .C      ORRS     r5,r5,r0
        0x000013c6:    2008        .       MOVS     r0,#8
        0x000013c8:    9103        ..      STR      r1,[sp,#0xc]
        0x000013ca:    9000        ..      STR      r0,[sp,#0]
        0x000013cc:    0268        h.      LSLS     r0,r5,#9
        0x000013ce:    0f40        @.      LSRS     r0,r0,#29
        0x000013d0:    2802        .(      CMP      r0,#2
        0x000013d2:    d010        ..      BEQ      0x13f6 ; _printf_core + 474
        0x000013d4:    cf01        ..      LDM      r7!,{r0}
        0x000013d6:    2100        .!      MOVS     r1,#0
        0x000013d8:    4684        .F      MOV      r12,r0
        0x000013da:    2000        .       MOVS     r0,#0
        0x000013dc:    900d        ..      STR      r0,[sp,#0x34]
        0x000013de:    0728        (.      LSLS     r0,r5,#28
        0x000013e0:    d51f        ..      BPL      0x1422 ; _printf_core + 518
        0x000013e2:    4670        pF      MOV      r0,lr
        0x000013e4:    2870        p(      CMP      r0,#0x70
        0x000013e6:    d00c        ..      BEQ      0x1402 ; _printf_core + 486
        0x000013e8:    9a02        ..      LDR      r2,[sp,#8]
        0x000013ea:    2010        .       MOVS     r0,#0x10
        0x000013ec:    9b03        ..      LDR      r3,[sp,#0xc]
        0x000013ee:    4042        B@      EORS     r2,r2,r0
        0x000013f0:    431a        .C      ORRS     r2,r2,r3
        0x000013f2:    d00c        ..      BEQ      0x140e ; _printf_core + 498
        0x000013f4:    e015        ..      B        0x1422 ; _printf_core + 518
        0x000013f6:    1dff        ..      ADDS     r7,r7,#7
        0x000013f8:    08ff        ..      LSRS     r7,r7,#3
        0x000013fa:    00ff        ..      LSLS     r7,r7,#3
        0x000013fc:    cf03        ..      LDM      r7!,{r0,r1}
        0x000013fe:    4684        .F      MOV      r12,r0
        0x00001400:    e7eb        ..      B        0x13da ; _printf_core + 446
        0x00001402:    2040        @       MOVS     r0,#0x40
        0x00001404:    466a        jF      MOV      r2,sp
        0x00001406:    7410        .t      STRB     r0,[r2,#0x10]
        0x00001408:    2001        .       MOVS     r0,#1
        0x0000140a:    900d        ..      STR      r0,[sp,#0x34]
        0x0000140c:    e00c        ..      B        0x1428 ; _printf_core + 524
        0x0000140e:    4660        `F      MOV      r0,r12
        0x00001410:    4308        .C      ORRS     r0,r0,r1
        0x00001412:    d006        ..      BEQ      0x1422 ; _printf_core + 518
        0x00001414:    2030        0       MOVS     r0,#0x30
        0x00001416:    466a        jF      MOV      r2,sp
        0x00001418:    7410        .t      STRB     r0,[r2,#0x10]
        0x0000141a:    4670        pF      MOV      r0,lr
        0x0000141c:    7450        Pt      STRB     r0,[r2,#0x11]
        0x0000141e:    2002        .       MOVS     r0,#2
        0x00001420:    900d        ..      STR      r0,[sp,#0x34]
        0x00001422:    4670        pF      MOV      r0,lr
        0x00001424:    2858        X(      CMP      r0,#0x58
        0x00001426:    d004        ..      BEQ      0x1432 ; _printf_core + 534
        0x00001428:    a029        ).      ADR      r0,{pc}+0xa8 ; 0x14d0
        0x0000142a:    9001        ..      STR      r0,[sp,#4]
        0x0000142c:    a80d        ..      ADD      r0,sp,#0x34
        0x0000142e:    900e        ..      STR      r0,[sp,#0x38]
        0x00001430:    e00d        ..      B        0x144e ; _printf_core + 562
        0x00001432:    a02c        ,.      ADR      r0,{pc}+0xb2 ; 0x14e4
        0x00001434:    e7f9        ..      B        0x142a ; _printf_core + 526
        0x00001436:    4660        `F      MOV      r0,r12
        0x00001438:    9b03        ..      LDR      r3,[sp,#0xc]
        0x0000143a:    9a02        ..      LDR      r2,[sp,#8]
        0x0000143c:    f7fefe94    ....    BL       __aeabi_uldivmod ; 0x168
        0x00001440:    9b01        ..      LDR      r3,[sp,#4]
        0x00001442:    4684        .F      MOV      r12,r0
        0x00001444:    5c9b        .\      LDRB     r3,[r3,r2]
        0x00001446:    9a0e        ..      LDR      r2,[sp,#0x38]
        0x00001448:    1e52        R.      SUBS     r2,r2,#1
        0x0000144a:    920e        ..      STR      r2,[sp,#0x38]
        0x0000144c:    7013        .p      STRB     r3,[r2,#0]
        0x0000144e:    4660        `F      MOV      r0,r12
        0x00001450:    4308        .C      ORRS     r0,r0,r1
        0x00001452:    d1f0        ..      BNE      0x1436 ; _printf_core + 538
        0x00001454:    980e        ..      LDR      r0,[sp,#0x38]
        0x00001456:    a905        ..      ADD      r1,sp,#0x14
        0x00001458:    1a08        ..      SUBS     r0,r1,r0
        0x0000145a:    3020         0      ADDS     r0,r0,#0x20
        0x0000145c:    9001        ..      STR      r0,[sp,#4]
        0x0000145e:    0768        h.      LSLS     r0,r5,#29
        0x00001460:    d501        ..      BPL      0x1466 ; _printf_core + 586
        0x00001462:    9800        ..      LDR      r0,[sp,#0]
        0x00001464:    e001        ..      B        0x146a ; _printf_core + 590
        0x00001466:    2001        .       MOVS     r0,#1
        0x00001468:    9000        ..      STR      r0,[sp,#0]
        0x0000146a:    9901        ..      LDR      r1,[sp,#4]
        0x0000146c:    4288        .B      CMP      r0,r1
        0x0000146e:    dd03        ..      BLE      0x1478 ; _printf_core + 604
        0x00001470:    4601        .F      MOV      r1,r0
        0x00001472:    9801        ..      LDR      r0,[sp,#4]
        0x00001474:    1a08        ..      SUBS     r0,r1,r0
        0x00001476:    e000        ..      B        0x147a ; _printf_core + 606
        0x00001478:    2000        .       MOVS     r0,#0
        0x0000147a:    2500        .%      MOVS     r5,#0
        0x0000147c:    9000        ..      STR      r0,[sp,#0]
        0x0000147e:    e006        ..      B        0x148e ; _printf_core + 626
        0x00001480:    a804        ..      ADD      r0,sp,#0x10
        0x00001482:    9a12        ..      LDR      r2,[sp,#0x48]
        0x00001484:    5d40        @]      LDRB     r0,[r0,r5]
        0x00001486:    9911        ..      LDR      r1,[sp,#0x44]
        0x00001488:    4790        .G      BLX      r2
        0x0000148a:    1c6d        m.      ADDS     r5,r5,#1
        0x0000148c:    1c76        v.      ADDS     r6,r6,#1
        0x0000148e:    980d        ..      LDR      r0,[sp,#0x34]
        0x00001490:    4285        .B      CMP      r5,r0
        0x00001492:    dbf5        ..      BLT      0x1480 ; _printf_core + 612
        0x00001494:    e004        ..      B        0x14a0 ; _printf_core + 644
        0x00001496:    9a12        ..      LDR      r2,[sp,#0x48]
        0x00001498:    2030        0       MOVS     r0,#0x30
        0x0000149a:    9911        ..      LDR      r1,[sp,#0x44]
        0x0000149c:    4790        .G      BLX      r2
        0x0000149e:    1c76        v.      ADDS     r6,r6,#1
        0x000014a0:    9900        ..      LDR      r1,[sp,#0]
        0x000014a2:    1e48        H.      SUBS     r0,r1,#1
        0x000014a4:    9000        ..      STR      r0,[sp,#0]
        0x000014a6:    2900        .)      CMP      r1,#0
        0x000014a8:    dcf5        ..      BGT      0x1496 ; _printf_core + 634
        0x000014aa:    e008        ..      B        0x14be ; _printf_core + 674
        0x000014ac:    980e        ..      LDR      r0,[sp,#0x38]
        0x000014ae:    990e        ..      LDR      r1,[sp,#0x38]
        0x000014b0:    7800        .x      LDRB     r0,[r0,#0]
        0x000014b2:    1c49        I.      ADDS     r1,r1,#1
        0x000014b4:    910e        ..      STR      r1,[sp,#0x38]
        0x000014b6:    9a12        ..      LDR      r2,[sp,#0x48]
        0x000014b8:    9911        ..      LDR      r1,[sp,#0x44]
        0x000014ba:    4790        .G      BLX      r2
        0x000014bc:    1c76        v.      ADDS     r6,r6,#1
        0x000014be:    9901        ..      LDR      r1,[sp,#4]
        0x000014c0:    1e48        H.      SUBS     r0,r1,#1
        0x000014c2:    9001        ..      STR      r0,[sp,#4]
        0x000014c4:    2900        .)      CMP      r1,#0
        0x000014c6:    dcf1        ..      BGT      0x14ac ; _printf_core + 656
        0x000014c8:    1c64        d.      ADDS     r4,r4,#1
        0x000014ca:    e6b4        ..      B        0x1236 ; _printf_core + 26
    $d
        0x000014cc:    00012809    .(..    DCD    75785
        0x000014d0:    33323130    0123    DCD    858927408
        0x000014d4:    37363534    4567    DCD    926299444
        0x000014d8:    62613938    89ab    DCD    1650538808
        0x000014dc:    66656463    cdef    DCD    1717920867
        0x000014e0:    00000000    ....    DCD    0
        0x000014e4:    33323130    0123    DCD    858927408
        0x000014e8:    37363534    4567    DCD    926299444
        0x000014ec:    42413938    89AB    DCD    1111570744
        0x000014f0:    46454443    CDEF    DCD    1178944579
        0x000014f4:    00000000    ....    DCD    0
    $t
    i.fputc
    fputc
        0x000014f8:    b530        0.      PUSH     {r4,r5,lr}
        0x000014fa:    4604        .F      MOV      r4,r0
        0x000014fc:    460d        .F      MOV      r5,r1
        0x000014fe:    4620         F      MOV      r0,r4
        0x00001500:    f7fff878    ..x.    BL       SendChar ; 0x5f4
        0x00001504:    4620         F      MOV      r0,r4
        0x00001506:    bd30        0.      POP      {r4,r5,pc}
    i.main
    main
        0x00001508:    bf00        ..      NOP      
        0x0000150a:    bf00        ..      NOP      
        0x0000150c:    bf00        ..      NOP      
        0x0000150e:    2059        Y       MOVS     r0,#0x59
        0x00001510:    4933        3I      LDR      r1,[pc,#204] ; [0x15e0] = 0x50000100
        0x00001512:    6008        .`      STR      r0,[r1,#0]
        0x00001514:    2016        .       MOVS     r0,#0x16
        0x00001516:    6008        .`      STR      r0,[r1,#0]
        0x00001518:    2088        .       MOVS     r0,#0x88
        0x0000151a:    6008        .`      STR      r0,[r1,#0]
        0x0000151c:    4608        .F      MOV      r0,r1
        0x0000151e:    6800        .h      LDR      r0,[r0,#0]
        0x00001520:    2800        .(      CMP      r0,#0
        0x00001522:    d0f4        ..      BEQ      0x150e ; main + 6
        0x00001524:    bf00        ..      NOP      
        0x00001526:    f7fff837    ..7.    BL       SYS_Init ; 0x598
        0x0000152a:    f7fff8c1    ....    BL       UART0_Init ; 0x6b0
        0x0000152e:    a02d        -.      ADR      r0,{pc}+0xb6 ; 0x15e4
        0x00001530:    f7fffe54    ..T.    BL       __0printf$5 ; 0x11dc
        0x00001534:    a02c        ,.      ADR      r0,{pc}+0xb4 ; 0x15e8
        0x00001536:    f7fffe51    ..Q.    BL       __0printf$5 ; 0x11dc
        0x0000153a:    a03a        :.      ADR      r0,{pc}+0xea ; 0x1624
        0x0000153c:    f7fffe4e    ..N.    BL       __0printf$5 ; 0x11dc
        0x00001540:    a029        ).      ADR      r0,{pc}+0xa8 ; 0x15e8
        0x00001542:    f7fffe4b    ..K.    BL       __0printf$5 ; 0x11dc
        0x00001546:    a046        F.      ADR      r0,{pc}+0x11a ; 0x1660
        0x00001548:    f7fffe48    ..H.    BL       __0printf$5 ; 0x11dc
        0x0000154c:    2200        ."      MOVS     r2,#0
        0x0000154e:    494f        OI      LDR      r1,[pc,#316] ; [0x168c] = 0x429
        0x00001550:    484f        OH      LDR      r0,[pc,#316] ; [0x1690] = 0x1840
        0x00001552:    f7fffb45    ..E.    BL       USBD_Open ; 0xbe0
        0x00001556:    f7feffbd    ....    BL       HID_Init ; 0x4d4
        0x0000155a:    f7fffdd3    ....    BL       USBD_Start ; 0x1104
        0x0000155e:    2017        .       MOVS     r0,#0x17
        0x00001560:    2800        .(      CMP      r0,#0
        0x00001562:    db05        ..      BLT      0x1570 ; main + 104
        0x00001564:    06c2        ..      LSLS     r2,r0,#27
        0x00001566:    0ed2        ..      LSRS     r2,r2,#27
        0x00001568:    2101        .!      MOVS     r1,#1
        0x0000156a:    4091        .@      LSLS     r1,r1,r2
        0x0000156c:    4a49        IJ      LDR      r2,[pc,#292] ; [0x1694] = 0xe000e100
        0x0000156e:    6011        .`      STR      r1,[r2,#0]
        0x00001570:    bf00        ..      NOP      
        0x00001572:    2001        .       MOVS     r0,#1
        0x00001574:    4948        HI      LDR      r1,[pc,#288] ; [0x1698] = 0x20000028
        0x00001576:    7008        .p      STRB     r0,[r1,#0]
        0x00001578:    4819        .H      LDR      r0,[pc,#100] ; [0x15e0] = 0x50000100
        0x0000157a:    6904        .i      LDR      r4,[r0,#0x10]
        0x0000157c:    2010        .       MOVS     r0,#0x10
        0x0000157e:    4947        GI      LDR      r1,[pc,#284] ; [0x169c] = 0x40060000
        0x00001580:    6048        H`      STR      r0,[r1,#4]
        0x00001582:    e02b        +.      B        0x15dc ; main + 212
        0x00001584:    4816        .H      LDR      r0,[pc,#88] ; [0x15e0] = 0x50000100
        0x00001586:    3880        .8      SUBS     r0,r0,#0x80
        0x00001588:    6800        .h      LDR      r0,[r0,#0]
        0x0000158a:    0780        ..      LSLS     r0,r0,#30
        0x0000158c:    0f80        ..      LSRS     r0,r0,#30
        0x0000158e:    2802        .(      CMP      r0,#2
        0x00001590:    d010        ..      BEQ      0x15b4 ; main + 172
        0x00001592:    4842        BH      LDR      r0,[pc,#264] ; [0x169c] = 0x40060000
        0x00001594:    6840        @h      LDR      r0,[r0,#4]
        0x00001596:    2110        .!      MOVS     r1,#0x10
        0x00001598:    4008        .@      ANDS     r0,r0,r1
        0x0000159a:    2800        .(      CMP      r0,#0
        0x0000159c:    d00a        ..      BEQ      0x15b4 ; main + 172
        0x0000159e:    2010        .       MOVS     r0,#0x10
        0x000015a0:    493e        >I      LDR      r1,[pc,#248] ; [0x169c] = 0x40060000
        0x000015a2:    6048        H`      STR      r0,[r1,#4]
        0x000015a4:    480e        .H      LDR      r0,[pc,#56] ; [0x15e0] = 0x50000100
        0x000015a6:    3880        .8      SUBS     r0,r0,#0x80
        0x000015a8:    6800        .h      LDR      r0,[r0,#0]
        0x000015aa:    493d        =I      LDR      r1,[pc,#244] ; [0x16a0] = 0x402
        0x000015ac:    4308        .C      ORRS     r0,r0,r1
        0x000015ae:    490c        .I      LDR      r1,[pc,#48] ; [0x15e0] = 0x50000100
        0x000015b0:    3980        .9      SUBS     r1,r1,#0x80
        0x000015b2:    6008        .`      STR      r0,[r1,#0]
        0x000015b4:    480a        .H      LDR      r0,[pc,#40] ; [0x15e0] = 0x50000100
        0x000015b6:    3880        .8      SUBS     r0,r0,#0x80
        0x000015b8:    6880        .h      LDR      r0,[r0,#8]
        0x000015ba:    2106        .!      MOVS     r1,#6
        0x000015bc:    4008        .@      ANDS     r0,r0,r1
        0x000015be:    2800        .(      CMP      r0,#0
        0x000015c0:    d00a        ..      BEQ      0x15d8 ; main + 208
        0x000015c2:    4807        .H      LDR      r0,[pc,#28] ; [0x15e0] = 0x50000100
        0x000015c4:    6104        .a      STR      r4,[r0,#0x10]
        0x000015c6:    2000        .       MOVS     r0,#0
        0x000015c8:    4905        .I      LDR      r1,[pc,#20] ; [0x15e0] = 0x50000100
        0x000015ca:    3980        .9      SUBS     r1,r1,#0x80
        0x000015cc:    6008        .`      STR      r0,[r1,#0]
        0x000015ce:    2006        .       MOVS     r0,#6
        0x000015d0:    6088        .`      STR      r0,[r1,#8]
        0x000015d2:    2010        .       MOVS     r0,#0x10
        0x000015d4:    4931        1I      LDR      r1,[pc,#196] ; [0x169c] = 0x40060000
        0x000015d6:    6048        H`      STR      r0,[r1,#4]
        0x000015d8:    f7feff94    ....    BL       HID_UpdateKbData ; 0x504
        0x000015dc:    e7d2        ..      B        0x1584 ; main + 124
    $d
        0x000015de:    0000        ..      DCW    0
        0x000015e0:    50000100    ...P    DCD    1342177536
        0x000015e4:    0000000a    ....    DCD    10
        0x000015e8:    2d2d2d2b    +---    DCD    757935403
        0x000015ec:    2d2d2d2d    ----    DCD    757935405
        0x000015f0:    2d2d2d2d    ----    DCD    757935405
        0x000015f4:    2d2d2d2d    ----    DCD    757935405
        0x000015f8:    2d2d2d2d    ----    DCD    757935405
        0x000015fc:    2d2d2d2d    ----    DCD    757935405
        0x00001600:    2d2d2d2d    ----    DCD    757935405
        0x00001604:    2d2d2d2d    ----    DCD    757935405
        0x00001608:    2d2d2d2d    ----    DCD    757935405
        0x0000160c:    2d2d2d2d    ----    DCD    757935405
        0x00001610:    2d2d2d2d    ----    DCD    757935405
        0x00001614:    2d2d2d2d    ----    DCD    757935405
        0x00001618:    2d2d2d2d    ----    DCD    757935405
        0x0000161c:    2d2d2d2d    ----    DCD    757935405
        0x00001620:    000a2b2d    -+..    DCD    666413
        0x00001624:    2020207c    |       DCD    538976380
        0x00001628:    20202020            DCD    538976288
        0x0000162c:    4e202020       N    DCD    1310728224
        0x00001630:    63694d75    uMic    DCD    1667845493
        0x00001634:    55206f72    ro U    DCD    1428189042
        0x00001638:    48204253    SB H    DCD    1210073683
        0x0000163c:    4b204449    ID K    DCD    1260405833
        0x00001640:    6f627965    eybo    DCD    1868724581
        0x00001644:    20647261    ard     DCD    543453793
        0x00001648:    706d6153    Samp    DCD    1886216531
        0x0000164c:    4320656c    le C    DCD    1126196588
        0x00001650:    2065646f    ode     DCD    543515759
        0x00001654:    20202020            DCD    538976288
        0x00001658:    20202020            DCD    538976288
        0x0000165c:    000a7c20     |..    DCD    687136
        0x00001660:    50206649    If P    DCD    1344300617
        0x00001664:    35312e42    B.15    DCD    892415554
        0x00001668:    30203d20     = 0    DCD    807419168
        0x0000166c:    756a202c    , ju    DCD    1969889324
        0x00001670:    72207473    st r    DCD    1914729587
        0x00001674:    726f7065    epor    DCD    1919905893
        0x00001678:    74692074    t it    DCD    1953046644
        0x0000167c:    20736920     is     DCD    544434464
        0x00001680:    2079656b    key     DCD    544826731
        0x00001684:    2e276127    'a'.    DCD    774332711
        0x00001688:    0000000a    ....    DCD    10
        0x0000168c:    00000429    )...    DCD    1065
        0x00001690:    00001840    @...    DCD    6208
        0x00001694:    e000e100    ....    DCD    3758153984
        0x00001698:    20000028    (..     DCD    536870952
        0x0000169c:    40060000    ...@    DCD    1074135040
        0x000016a0:    00000402    ....    DCD    1026
    $t
    i.stackDump
    stackDump
        0x000016a4:    b510        ..      PUSH     {r4,lr}
        0x000016a6:    4604        .F      MOV      r4,r0
        0x000016a8:    a010        ..      ADR      r0,{pc}+0x44 ; 0x16ec
        0x000016aa:    6821        !h      LDR      r1,[r4,#0]
        0x000016ac:    f7fffd96    ....    BL       __0printf$5 ; 0x11dc
        0x000016b0:    a011        ..      ADR      r0,{pc}+0x48 ; 0x16f8
        0x000016b2:    6861        ah      LDR      r1,[r4,#4]
        0x000016b4:    f7fffd92    ....    BL       __0printf$5 ; 0x11dc
        0x000016b8:    a012        ..      ADR      r0,{pc}+0x4c ; 0x1704
        0x000016ba:    68a1        .h      LDR      r1,[r4,#8]
        0x000016bc:    f7fffd8e    ....    BL       __0printf$5 ; 0x11dc
        0x000016c0:    a013        ..      ADR      r0,{pc}+0x50 ; 0x1710
        0x000016c2:    68e1        .h      LDR      r1,[r4,#0xc]
        0x000016c4:    f7fffd8a    ....    BL       __0printf$5 ; 0x11dc
        0x000016c8:    a014        ..      ADR      r0,{pc}+0x54 ; 0x171c
        0x000016ca:    6921        !i      LDR      r1,[r4,#0x10]
        0x000016cc:    f7fffd86    ....    BL       __0printf$5 ; 0x11dc
        0x000016d0:    a015        ..      ADR      r0,{pc}+0x58 ; 0x1728
        0x000016d2:    6961        ai      LDR      r1,[r4,#0x14]
        0x000016d4:    f7fffd82    ....    BL       __0printf$5 ; 0x11dc
        0x000016d8:    a016        ..      ADR      r0,{pc}+0x5c ; 0x1734
        0x000016da:    69a1        .i      LDR      r1,[r4,#0x18]
        0x000016dc:    f7fffd7e    ..~.    BL       __0printf$5 ; 0x11dc
        0x000016e0:    a017        ..      ADR      r0,{pc}+0x60 ; 0x1740
        0x000016e2:    69e1        .i      LDR      r1,[r4,#0x1c]
        0x000016e4:    f7fffd7a    ..z.    BL       __0printf$5 ; 0x11dc
        0x000016e8:    bd10        ..      POP      {r4,pc}
    $d
        0x000016ea:    0000        ..      DCW    0
        0x000016ec:    20203072    r0      DCD    538980466
        0x000016f0:    7830203d    = 0x    DCD    2016419901
        0x000016f4:    000a7825    %x..    DCD    686117
        0x000016f8:    20203172    r1      DCD    538980722
        0x000016fc:    7830203d    = 0x    DCD    2016419901
        0x00001700:    000a7825    %x..    DCD    686117
        0x00001704:    20203272    r2      DCD    538980978
        0x00001708:    7830203d    = 0x    DCD    2016419901
        0x0000170c:    000a7825    %x..    DCD    686117
        0x00001710:    20203372    r3      DCD    538981234
        0x00001714:    7830203d    = 0x    DCD    2016419901
        0x00001718:    000a7825    %x..    DCD    686117
        0x0000171c:    20323172    r12     DCD    540160370
        0x00001720:    7830203d    = 0x    DCD    2016419901
        0x00001724:    000a7825    %x..    DCD    686117
        0x00001728:    2020726c    lr      DCD    538997356
        0x0000172c:    7830203d    = 0x    DCD    2016419901
        0x00001730:    000a7825    %x..    DCD    686117
        0x00001734:    20206370    pc      DCD    538993520
        0x00001738:    7830203d    = 0x    DCD    2016419901
        0x0000173c:    000a7825    %x..    DCD    686117
        0x00001740:    20727370    psr     DCD    544371568
        0x00001744:    7830203d    = 0x    DCD    2016419901
        0x00001748:    000a7825    %x..    DCD    686117
    $d.realdata
    .constdata
    gau32ClkSrcTbl
        0x0000174c:    00b71b00    ....    DCD    12000000
        0x00001750:    00008000    ....    DCD    32768
        0x00001754:    05b8d800    ....    DCD    96000000
        0x00001758:    00002710    .'..    DCD    10000
        0x0000175c:    02dc6c00    .l..    DCD    48000000
        0x00001760:    02dc6c00    .l..    DCD    48000000
        0x00001764:    00000000    ....    DCD    0
        0x00001768:    016e3600    .6n.    DCD    24000000
    .constdata
    HID_KeyboardReportDescriptor
        0x0000176c:    06090105    ....    DCD    101253381
        0x00001770:    070501a1    ....    DCD    117768609
        0x00001774:    e729e019    ..).    DCD    3878281241
        0x00001778:    01250015    ..%.    DCD    19202069
        0x0000177c:    08950175    u...    DCD    143982965
        0x00001780:    01950281    ....    DCD    26542721
        0x00001784:    01810875    u...    DCD    25233525
        0x00001788:    01750595    ..u.    DCD    24446357
        0x0000178c:    01190805    ....    DCD    18417669
        0x00001790:    02910529    )...    DCD    43058473
        0x00001794:    03750195    ..u.    DCD    57999765
        0x00001798:    06950191    ....    DCD    110428561
        0x0000179c:    00150875    u...    DCD    1378421
        0x000017a0:    07056525    %e..    DCD    117794085
        0x000017a4:    65290019    ..)e    DCD    1697185817
        0x000017a8:    0081        ..      DCW    129
        0x000017aa:    c0          .       DCB    192
    gu8DeviceDescriptor
        0x000017ab:    12          .       DCB    18
        0x000017ac:    00011001    ....    DCD    69633
        0x000017b0:    16080000    ....    DCD    369623040
        0x000017b4:    00012304    .#..    DCD    74500
        0x000017b8:    03020100    ....    DCD    50462976
        0x000017bc:    01          .       DCB    1
    gu8ConfigDescriptor
        0x000017bd:    090222      .."     DCB    9,2,34
        0x000017c0:    00010100    ....    DCD    65792
        0x000017c4:    04093280    .2..    DCD    67711616
        0x000017c8:    03010000    ....    DCD    50397184
        0x000017cc:    09000101    ....    DCD    150995201
        0x000017d0:    00011021    !...    DCD    69665
        0x000017d4:    003f2201    ."?.    DCD    4137473
        0x000017d8:    03810507    ....    DCD    58787079
        0x000017dc:    0008        ..      DCW    8
        0x000017de:    14          .       DCB    20
    gu8StringLang
        0x000017df:    04          .       DCB    4
        0x000017e0:    0903        ..      DCW    2307
        0x000017e2:    04          .       DCB    4
    gu8VendorStringDesc
        0x000017e3:    10          .       DCB    16
        0x000017e4:    75004e03    .N.u    DCD    1962954243
        0x000017e8:    6f007600    .v.o    DCD    1862301184
        0x000017ec:    6f007400    .t.o    DCD    1862300672
        0x000017f0:    6e00        .n      DCW    28160
        0x000017f2:    00          .       DCB    0
    gu8ProductStringDesc
        0x000017f3:    1a          .       DCB    26
        0x000017f4:    49004803    .H.I    DCD    1224755203
        0x000017f8:    20004400    .D.     DCD    536888320
        0x000017fc:    65004b00    .K.e    DCD    1694518016
        0x00001800:    62007900    .y.b    DCD    1644198144
        0x00001804:    61006f00    .o.a    DCD    1627418368
        0x00001808:    64007200    .r.d    DCD    1677750784
        0x0000180c:    00          .       DCB    0
    gu8StringSerial
        0x0000180d:    1a0341      ..A     DCB    26,3,65
        0x00001810:    32003000    .0.2    DCD    838873088
        0x00001814:    31003000    .0.1    DCD    822095872
        0x00001818:    30003400    .4.0    DCD    805319680
        0x0000181c:    30003900    .9.0    DCD    805320960
        0x00001820:    30003300    .3.0    DCD    805319424
        0x00001824:    00003200    .2..    DCD    12800
    gu32UsbHidReportLen
        0x00001828:    0000003f    ?...    DCD    63
        0x0000182c:    00000000    ....    DCD    0
        0x00001830:    00000000    ....    DCD    0
    gu32ConfigHidDescIdx
        0x00001834:    00000012    ....    DCD    18
        0x00001838:    00000000    ....    DCD    0
        0x0000183c:    00000000    ....    DCD    0
    gsInfo
        0x00001840:    000017ab    ....    DCD    6059
        0x00001844:    000017bd    ....    DCD    6077
        0x00001848:    2000000c    ...     DCD    536870924
        0x0000184c:    2000001c    ...     DCD    536870940
        0x00001850:    00001828    (...    DCD    6184
        0x00001854:    00001834    4...    DCD    6196
        0x00001858:    00000000    ....    DCD    0
    .constdata
        0x0000185c:    00000000    ....    DCD    0
        0x00001860:    00000004    ....    DCD    4
        0x00001864:    0000000c    ....    DCD    12
        0x00001868:    00000024    $...    DCD    36
        0x0000186c:    00000000    ....    DCD    0
        0x00001870:    00000004    ....    DCD    4
        0x00001874:    0000002c    ,...    DCD    44
        0x00001878:    00000000    ....    DCD    0
        0x0000187c:    00000004    ....    DCD    4
        0x00001880:    0000002c    ,...    DCD    44
    Region$$Table$$Base
        0x00001884:    000018a4    ....    DCD    6308
        0x00001888:    20000000    ...     DCD    536870912
        0x0000188c:    00000088    ....    DCD    136
        0x00001890:    000011fc    ....    DCD    4604
        0x00001894:    0000192c    ,...    DCD    6444
        0x00001898:    20000088    ...     DCD    536871048
        0x0000189c:    00000200    ....    DCD    512
        0x000018a0:    0000120c    ....    DCD    4620
    Region$$Table$$Limit

** Section #2 'ER_RW' (SHT_PROGBITS) [SHF_ALLOC + SHF_WRITE]
    Size   : 136 bytes (alignment 4)
    Address: 0x20000000


** Section #3 'ER_ZI' (SHT_NOBITS) [SHF_ALLOC + SHF_WRITE]
    Size   : 512 bytes (alignment 8)
    Address: 0x20000088


** Section #4 '.debug_abbrev' (SHT_PROGBITS)
    Size   : 1476 bytes


** Section #5 '.debug_frame' (SHT_PROGBITS)
    Size   : 1600 bytes


** Section #6 '.debug_info' (SHT_PROGBITS)
    Size   : 21552 bytes


** Section #7 '.debug_line' (SHT_PROGBITS)
    Size   : 8400 bytes


** Section #8 '.debug_loc' (SHT_PROGBITS)
    Size   : 2332 bytes


** Section #9 '.debug_macinfo' (SHT_PROGBITS)
    Size   : 69876 bytes


** Section #10 '.debug_pubnames' (SHT_PROGBITS)
    Size   : 1945 bytes


** Section #11 '.symtab' (SHT_SYMTAB)
    Size   : 6016 bytes (alignment 4)
    String table #12 '.strtab'
    Last local symbol no. 217


** Section #12 '.strtab' (SHT_STRTAB)
    Size   : 4884 bytes


** Section #13 '.note' (SHT_NOTE)
    Size   : 28 bytes (alignment 4)


** Section #14 '.comment' (SHT_PROGBITS)
    Size   : 9776 bytes


** Section #15 '.shstrtab' (SHT_STRTAB)
    Size   : 156 bytes


